cnumpy.core.multiarray
_reconstruct
p1
(cnumpy
ndarray
p2
(I0
tS'b'
tRp3
(I1
(I78
tcnumpy
dtype
p4
(S'O8'
I0
I1
tRp5
(I3
S'|'
NNNI-1
I-1
I63
tbI00
(lp6
(idata_structure
C_TSi
p7
(dp8
S'avg_err'
p9
cnumpy.core.multiarray
scalar
p10
(g4
(S'f8'
I0
I1
tRp11
(I3
S'<'
NNNI-1
I-1
I0
tbS'\xfc\xa9\xf1\xd2Mb`?'
tRp12
sS'scaled_var_index'
p13
(dp14
S'N_above_3'
p15
I0
sS'N_below_7'
p16
I0
sS'N_sum_below'
p17
g10
(g11
S'\x00\x00\x00\x00\x00\x00\x00\x00'
tRp18
sS'B-R'
p19
F0.219
sS'N_below'
p20
I0
sS'N_below_4'
p21
I0
sS'N_below_5'
p22
I0
sS'N_below_6'
p23
I0
sS'N_sum_above'
p24
g10
(g11
S'\x00\x00\x00\x00\x00\x00\x00\x00'
tRp25
sS'stetson_L'
p26
g10
(g11
S')+\x9aK\x8b\xb9Y@'
tRp27
sS'Sigma'
p28
g10
(g11
S'\xfev\xff\xeeMl\x94?'
tRp29
sS'N_below_3'
p30
I0
sS'Con'
p31
F0
sS'Eta_AC'
p32
g10
(g11
S'\xdd2\x065\x1d<\xe3?'
tRp33
sS'Period_SNR'
p34
g1
(g2
(I0
tS'b'
tRp35
(I1
(I1
tg11
I00
S'\xc2v\x1eI\xedmu@'
tbsS'CuSum'
p36
g10
(g11
S'`\x1ck&\x8b\x9c\xf5?'
tRp37
sS'N_above'
p38
I0
sS'N_above_4'
p39
I0
sS'Period'
p40
g1
(g2
(I0
tS'b'
tRp41
(I1
(I1
tg11
I00
S'\x15\xbf\x1aj\xad\xd1$@'
tbsS'N_above_6'
p42
I0
sS'N_above_7'
p43
I0
sS'Eta'
p44
g10
(g11
S'\xae-%)\xd0\xcf\xf3?'
tRp45
sS'welch_stetson'
p46
g10
(g11
S'\xb9\x1b\xb5\x90\xf5z\xd0@'
tRp47
sS'stetson_K_AC'
p48
g10
(g11
S'go8\x16xc\xdf?'
tRp49
sS'N_above_5'
p50
I0
sS'Sigma_AC'
p51
g10
(g11
S'7\x9c\x92\x0b\xe6\x90Q@'
tRp52
ssS'seq'
p53
S'15'
p54
sS'Dec_degree'
p55
F-69.389600000000002
sS'avg_mag'
p56
g10
(g11
S'\x04V\x0e-\xb2\xfd#\xc0'
tRp57
sS'var_index'
p58
(dp59
g38
I0
sg24
g25
sg17
g18
sg19
F0.219
sg20
I0
sg21
I0
sg22
I0
sg23
I0
sg16
I0
sg26
g27
sg28
g29
sg31
F0
sg32
g33
sg44
g45
sg34
g35
sg36
g37
sg40
g41
sg15
I0
sg39
I0
sg50
I0
sg42
I0
sg43
I0
sg30
I0
sg46
g47
sg48
g49
sg51
g52
ssS'label'
p60
I5
sS'field'
p61
S'1'
sS'RA_degree'
p62
F5.03111
sS'tile'
p63
S'3441'
p64
sS'end_mjd'
p65
g10
(g11
S'hur\x06\xab*\xe9@'
tRp66
sS'start_mjd'
p67
g10
(g11
S'\x1b\xa1\x9f\xa9\x0e\xd7\xe7@'
tRp68
sba(idata_structure
C_TSi
p69
(dp70
g9
g10
(g11
S'\xfc\xa9\xf1\xd2Mbp?'
tRp71
sg13
(dp72
g15
I0
sg16
I0
sg17
g10
(g11
S'\x00\x00\x00\x00\x00\x00\x00\x00'
tRp73
sg19
F0.16700000000000001
sg20
I0
sg21
I0
sg22
I0
sg23
I0
sg24
g10
(g11
S'\x00\x00\x00\x00\x00\x00\x00\x00'
tRp74
sg26
g10
(g11
S'\x10\xc3_\xe08\xa8D@'
tRp75
sg28
g10
(g11
S'\xc8\xbf\xc0\xd0\x1b\xb5\x93?'
tRp76
sg30
I0
sg31
F0
sg32
g10
(g11
S'\xf1\x1d\x94\x10\xcb\x81\xf9?'
tRp77
sg34
g1
(g2
(I0
tS'b'
tRp78
(I1
(I1
tg11
I00
S'\xec\xc0\x8b\xb0\x14yj@'
tbsg36
g10
(g11
S'" \xd2\xe6\xa8\xa8\xe6?'
tRp79
sg38
I0
sg39
I0
sg40
g1
(g2
(I0
tS'b'
tRp80
(I1
(I1
tg11
I00
S'\x9d\xea\x8c\xb5\xd3\xe8\n@'
tbsg42
I0
sg43
I0
sg44
g10
(g11
S'\xc1\x12\x86\xc7\x9f\xfc\x01@'
tRp81
sg46
g10
(g11
S'\x920\x88\xdf\x96\xf1\xa1@'
tRp82
sg48
g10
(g11
S'\xd899\x10P^\xdd?'
tRp83
sg50
I0
sg51
g10
(g11
S'~M\xd0\x82\xf5DO@'
tRp84
ssg53
S'45'
p85
sg55
F-69.3887
sg56
g10
(g11
S'\xf6(\\\x8f\xc2\xd5 \xc0'
tRp86
sg58
(dp87
g38
I0
sg24
g74
sg17
g73
sg19
F0.16700000000000001
sg20
I0
sg21
I0
sg22
I0
sg23
I0
sg16
I0
sg26
g75
sg28
g76
sg31
F0
sg32
g77
sg44
g81
sg34
g78
sg36
g79
sg40
g80
sg15
I0
sg39
I0
sg50
I0
sg42
I0
sg43
I0
sg30
I0
sg46
g82
sg48
g83
sg51
g84
ssg60
I5
sg61
S'1'
sg62
F5.0255200000000002
sg63
S'3441'
p88
sg65
g10
(g11
S'hur\x06\xab*\xe9@'
tRp89
sg67
g10
(g11
S'Vb\x9e\x95\xef\xd6\xe7@'
tRp90
sba(idata_structure
C_TSi
p91
(dp92
g9
g10
(g11
S'{\x14\xaeG\xe1zt?'
tRp93
sg13
(dp94
g15
I0
sg16
I0
sg17
g10
(g11
S'\x00\x00\x00\x00\x00\x00\x00\x00'
tRp95
sg19
F0.253
sg20
I0
sg21
I0
sg22
I0
sg23
I0
sg24
g10
(g11
S'\x00\x00\x00\x00\x00\x00\x00\x00'
tRp96
sg26
g10
(g11
S'\xaak\x83\xf4\xf5"6@'
tRp97
sg28
g10
(g11
S'AF\x8d\x95\xb9b\x89?'
tRp98
sg30
I2
sg31
F0
sg32
g10
(g11
S'r&K\x9a\x94\x11\xf8?'
tRp99
sg34
g1
(g2
(I0
tS'b'
tRp100
(I1
(I1
tg11
I00
S'hnt\xd6\x04\xdde@'
tbsg36
g10
(g11
S'4\xba\x02\x9e\xb2\xff\xe7?'
tRp101
sg38
I0
sg39
I0
sg40
g1
(g2
(I0
tS'b'
tRp102
(I1
(I1
tg11
I00
S'>Q\xd4\xa5\x88y\x0e@'
tbsg42
I0
sg43
I0
sg44
g10
(g11
S'u\xb1\xe0\xc6\xc2C\x01@'
tRp103
sg46
g10
(g11
S'\xc7P\x93%\x06\xed\x84@'
tRp104
sg48
g10
(g11
S'\xf2\xa5fWDH\xde?'
tRp105
sg50
I0
sg51
g10
(g11
S'\x8b)m\x10\x1cWO@'
tRp106
ssg53
S'26'
p107
sg55
F-69.289699999999996
sg56
g10
(g11
S'\x1e\x85\xebQ\xb8\xfe \xc0'
tRp108
sg58
(dp109
g38
I0
sg24
g96
sg17
g95
sg19
F0.253
sg20
I0
sg21
I0
sg22
I0
sg23
I0
sg16
I0
sg26
g97
sg28
g98
sg31
F0
sg32
g99
sg44
g103
sg34
g100
sg36
g101
sg40
g102
sg15
I0
sg39
I0
sg50
I0
sg42
I0
sg43
I0
sg30
I2
sg46
g104
sg48
g105
sg51
g106
ssg60
I5
sg61
S'1'
sg62
F5.0221900000000002
sg63
S'3443'
p110
sg65
g10
(g11
S'hur\x06\xab*\xe9@'
tRp111
sg67
g10
(g11
S'\xd2\xe1!\x8cM\xde\xe7@'
tRp112
sba(idata_structure
C_TSi
p113
(dp114
g9
g10
(g11
S'{\x14\xaeG\xe1zt?'
tRp115
sg13
(dp116
g15
I0
sg16
I0
sg17
g10
(g11
S'*#,\xbd\xd7\xb8\xc9?'
tRp117
sg19
F0.22700000000000001
sg20
I1
sg21
I0
sg22
I0
sg23
I0
sg24
g10
(g11
S'\x00\x00\x00\x00\x00\x00\x00\x00'
tRp118
sg26
g10
(g11
S'\xf7\xd1\x17+s\xe95@'
tRp119
sg28
g10
(g11
S'\xffE\x97\xdfT\n\x8a?'
tRp120
sg30
I1
sg31
F0
sg32
g10
(g11
S'\xdbO\xf4h\x1c\x8f\xf8?'
tRp121
sg34
g1
(g2
(I0
tS'b'
tRp122
(I1
(I1
tg11
I00
S'#~?\xb0#\x89t@'
tbsg36
g10
(g11
S'\x18\x9e%\x87\x04\x05\xec?'
tRp123
sg38
I0
sg39
I0
sg40
g1
(g2
(I0
tS'b'
tRp124
(I1
(I1
tg11
I00
S'\xec\x1e5>}/\t@'
tbsg42
I0
sg43
I0
sg44
g10
(g11
S'\x1a\xdf\x15\xca7m\x01@'
tRp125
sg46
g10
(g11
S'\xd7\xe2\nl\x1b\xc0\x84@'
tRp126
sg48
g10
(g11
S'\xff{M0\xd9\xcf\xde?'
tRp127
sg50
I0
sg51
g10
(g11
S'\xaa\x82\x10]\x05RP@'
tRp128
ssg53
S'30'
p129
sg55
F-69.231999999999999
sg56
g10
(g11
S'\xe9&1\x08\xac\x9c \xc0'
tRp130
sg58
(dp131
g38
I0
sg24
g118
sg17
g117
sg19
F0.22700000000000001
sg20
I1
sg21
I0
sg22
I0
sg23
I0
sg16
I0
sg26
g119
sg28
g120
sg31
F0
sg32
g121
sg44
g125
sg34
g122
sg36
g123
sg40
g124
sg15
I0
sg39
I0
sg50
I0
sg42
I0
sg43
I0
sg30
I1
sg46
g126
sg48
g127
sg51
g128
ssg60
I5
sg61
S'1'
sg62
F5.0314100000000002
sg63
S'3443'
p132
sg65
g10
(g11
S'hur\x06\xab*\xe9@'
tRp133
sg67
g10
(g11
S'\x1b\xa1\x9f\xa9\x0e\xd7\xe7@'
tRp134
sba(idata_structure
C_TSi
p135
(dp136
g9
g10
(g11
S'{\x14\xaeG\xe1zt?'
tRp137
sg13
(dp138
g15
I0
sg16
I0
sg17
g10
(g11
S'\x00\x00\x00\x00\x00\x00\x00\x00'
tRp139
sg19
F0.34399999999999997
sg20
I0
sg21
I0
sg22
I0
sg23
I0
sg24
g10
(g11
S'\x00\x00\x00\x00\x00\x00\x00\x00'
tRp140
sg26
g10
(g11
S'\t\xf6=;J\xae=@'
tRp141
sg28
g10
(g11
S'\x82\xd1\n\x96\xdd4\x93?'
tRp142
sg30
I0
sg31
F0
sg32
g10
(g11
S'U\x94#\xd4\xc5T\xf4?'
tRp143
sg34
g1
(g2
(I0
tS'b'
tRp144
(I1
(I1
tg11
I00
S'\xfc\x81\x10=4\xbbq@'
tbsg36
g10
(g11
S'u\xf4aGn<\xf5?'
tRp145
sg38
I0
sg39
I0
sg40
g1
(g2
(I0
tS'b'
tRp146
(I1
(I1
tg11
I00
S'\x91c\xf0\xf4\xc3S\x0e@'
tbsg42
I0
sg43
I0
sg44
g10
(g11
S'\xd1-$\xc3E\xbf\xfe?'
tRp147
sg46
g10
(g11
S':s\xb6Yt\x9d\x93@'
tRp148
sg48
g10
(g11
S'\x989sw?\xbc\xdd?'
tRp149
sg50
I0
sg51
g10
(g11
S'\x1c\x9f\x87P0\xfbT@'
tRp150
ssg53
S'36'
p151
sg55
F-68.997100000000003
sg56
g10
(g11
S'{\x14\xaeG\xe1: \xc0'
tRp152
sg58
(dp153
g38
I0
sg24
g140
sg17
g139
sg19
F0.34399999999999997
sg20
I0
sg21
I0
sg22
I0
sg23
I0
sg16
I0
sg26
g141
sg28
g142
sg31
F0
sg32
g143
sg44
g147
sg34
g144
sg36
g145
sg40
g146
sg15
I0
sg39
I0
sg50
I0
sg42
I0
sg43
I0
sg30
I0
sg46
g148
sg48
g149
sg51
g150
ssg60
I5
sg61
S'1'
sg62
F5.0268100000000002
sg63
S'3447'
p154
sg65
g10
(g11
S'\xf8\x89\x03hJ+\xe9@'
tRp155
sg67
g10
(g11
S'\x1b\xa1\x9f\xa9\x0e\xd7\xe7@'
tRp156
sba(idata_structure
C_TSi
p157
(dp158
g9
g10
(g11
S'\xfc\xa9\xf1\xd2Mb`?'
tRp159
sg13
(dp160
g15
I9
sg16
I0
sg17
g10
(g11
S'\x00\x00\x00\x00\x00\x00\x00\x00'
tRp161
sg19
F0.39200000000000002
sg20
I0
sg21
I0
sg22
I0
sg23
I0
sg24
g10
(g11
S'\x00\x00\x00\x00\x00\x00\x00\x00'
tRp162
sg26
g10
(g11
S'\xf3z}\xb3dCX@'
tRp163
sg28
g10
(g11
S'\x8f\xa4\x9a\xe0J\xe6\x93?'
tRp164
sg30
I11
sg31
F0
sg32
g10
(g11
S'\xeb\xae\xe3\x96\xb3\x9e\xd7?'
tRp165
sg34
g1
(g2
(I0
tS'b'
tRp166
(I1
(I1
tg11
I00
S'\xaf\xc3\x81`\xb7\xcfx@'
tbsg36
g10
(g11
S'\xad\x8d,\xbf\xdd%\xfd?'
tRp167
sg38
I0
sg39
I0
sg40
g1
(g2
(I0
tS'b'
tRp168
(I1
(I1
tg11
I00
S'\xb0\xda\xbe\x91\x8fk(@'
tbsg42
I0
sg43
I0
sg44
g10
(g11
S'\xa1\x13x\xe3 N\xf0?'
tRp169
sg46
g10
(g11
S'M\xce\xa2A\x8b \xc7@'
tRp170
sg48
g10
(g11
S'\xd9r\x1b\xa3\x90\xc7\xe0?'
tRp171
sg50
I0
sg51
g10
(g11
S'\xf8\x92\x9etB\xcb\\@'
tRp172
ssg53
S'13'
p173
sg55
F-68.923100000000005
sg56
g10
(g11
S'o\x12\x83\xc0\xca!#\xc0'
tRp174
sg58
(dp175
g38
I0
sg24
g162
sg17
g161
sg19
F0.39200000000000002
sg20
I0
sg21
I0
sg22
I0
sg23
I0
sg16
I0
sg26
g163
sg28
g164
sg31
F0
sg32
g165
sg44
g169
sg34
g166
sg36
g167
sg40
g168
sg15
I9
sg39
I0
sg50
I0
sg42
I0
sg43
I0
sg30
I11
sg46
g170
sg48
g171
sg51
g172
ssg60
I5
sg61
S'1'
sg62
F5.0335999999999999
sg63
S'3448'
p176
sg65
g10
(g11
S'\xf8\x89\x03hJ+\xe9@'
tRp177
sg67
g10
(g11
S'\xf05\x04G\xef\xd6\xe7@'
tRp178
sba(idata_structure
C_TSi
p179
(dp180
g9
g10
(g11
S'\xfc\xa9\xf1\xd2Mb\x80?'
tRp181
sg13
(dp182
g15
I0
sg16
I0
sg17
g10
(g11
S'\x00\x00\x00\x00\x00\x00\x00\x00'
tRp183
sg19
F0.088999999999999996
sg20
I0
sg21
I0
sg22
I0
sg23
I0
sg24
g10
(g11
S'\x00\x00\x00\x00\x00\x00\x00\x00'
tRp184
sg26
g10
(g11
S'\x83\xcd7\xca\x99\x961@'
tRp185
sg28
g10
(g11
S'\xea\x8f\x03\xa14\xec\x90?'
tRp186
sg30
I0
sg31
F0
sg32
g10
(g11
S'*\x95L\xbcc\x84\xeb?'
tRp187
sg34
g1
(g2
(I0
tS'b'
tRp188
(I1
(I1
tg11
I00
S'\x86\xf3\xd9\x95GU~@'
tbsg36
g10
(g11
S'\xa0l\xbb\xb2\no\xf1?'
tRp189
sg38
I0
sg39
I0
sg40
g1
(g2
(I0
tS'b'
tRp190
(I1
(I1
tg11
I00
S'y9*8\xce\xc2\xf1?'
tbsg42
I0
sg43
I0
sg44
g10
(g11
S'r\xbc"\x9a\xbd\xe6\xf9?'
tRp191
sg46
g10
(g11
S'A\x85\x11\xd3\x83\x16z@'
tRp192
sg48
g10
(g11
S'Xb\r\xed\xce(\xde?'
tRp193
sg50
I0
sg51
g10
(g11
S'@\x97\xbfW~+U@'
tRp194
ssg53
S'62'
p195
sg55
F-68.846000000000004
sg56
g10
(g11
S'\x98n\x12\x83\xc0J\x1e\xc0'
tRp196
sg58
(dp197
g38
I0
sg24
g184
sg17
g183
sg19
F0.088999999999999996
sg20
I0
sg21
I0
sg22
I0
sg23
I0
sg16
I0
sg26
g185
sg28
g186
sg31
F0
sg32
g187
sg44
g191
sg34
g188
sg36
g189
sg40
g190
sg15
I0
sg39
I0
sg50
I0
sg42
I0
sg43
I0
sg30
I0
sg46
g192
sg48
g193
sg51
g194
ssg60
I5
sg61
S'1'
sg62
F5.0301499999999999
sg63
S'3449'
p198
sg65
g10
(g11
S'\xf8\x89\x03hJ+\xe9@'
tRp199
sg67
g10
(g11
S'\x1b\xa1\x9f\xa9\x0e\xd7\xe7@'
tRp200
sba(idata_structure
C_TSi
p201
(dp202
g9
g10
(g11
S'{\x14\xaeG\xe1z\x84?'
tRp203
sg13
(dp204
g15
I1
sg16
I0
sg17
g10
(g11
S'\x00\x00\x00\x00\x00\x00\x00\x00'
tRp205
sg19
F0.042999999999999997
sg20
I0
sg21
I0
sg22
I0
sg23
I0
sg24
g10
(g11
S'\x8e\xdf\xc8\xf9\xa3\x18\xa3?'
tRp206
sg26
g10
(g11
S'$\xf5\xd7\x85\xcb`-@'
tRp207
sg28
g10
(g11
S'\x04\x031\xc1\x7fh\x93?'
tRp208
sg30
I5
sg31
F0
sg32
g10
(g11
S'@\\\x86\xdf;\xee\xe8?'
tRp209
sg34
g1
(g2
(I0
tS'b'
tRp210
(I1
(I1
tg11
I00
S'\xfbH\x9cP;\x9ea@'
tbsg36
g10
(g11
S'\x94\xf4\n6, \xf5?'
tRp211
sg38
I1
sg39
I1
sg40
g1
(g2
(I0
tS'b'
tRp212
(I1
(I1
tg11
I00
S'muq\x04\x13\x9d\xf1?'
tbsg42
I0
sg43
I0
sg44
g10
(g11
S'N\x8d\x0f\xd9\xdc\x8e\xf7?'
tRp213
sg46
g10
(g11
S'\x08\x05;KD;v@'
tRp214
sg48
g10
(g11
S'\x03\x9akl\xc5\xad\xdf?'
tRp215
sg50
I0
sg51
g10
(g11
S'\xad\x04\xa7\x81G\xfdF@'
tRp216
ssg53
S'33'
p217
sg55
F-68.728800000000007
sg56
g10
(g11
S'\x81\x95C\x8bl\xe7\x1d\xc0'
tRp218
sg58
(dp219
g38
I1
sg24
g206
sg17
g205
sg19
F0.042999999999999997
sg20
I0
sg21
I0
sg22
I0
sg23
I0
sg16
I0
sg26
g207
sg28
g208
sg31
F0
sg32
g209
sg44
g213
sg34
g210
sg36
g211
sg40
g212
sg15
I1
sg39
I1
sg50
I0
sg42
I0
sg43
I0
sg30
I5
sg46
g214
sg48
g215
sg51
g216
ssg60
I5
sg61
S'1'
sg62
F5.0273000000000003
sg63
S'3451'
p220
sg65
g10
(g11
S'\xf8\x89\x03hJ+\xe9@'
tRp221
sg67
g10
(g11
S'\x18@\xf8P1\xd9\xe7@'
tRp222
sba(idata_structure
C_TSi
p223
(dp224
g9
g10
(g11
S'\xfc\xa9\xf1\xd2Mbp?'
tRp225
sg13
(dp226
g15
I0
sg16
I0
sg17
g10
(g11
S'\x00\x00\x00\x00\x00\x00\x00\x00'
tRp227
sg19
F0.27100000000000002
sg20
I0
sg21
I0
sg22
I0
sg23
I0
sg24
g10
(g11
S'\x00\x00\x00\x00\x00\x00\x00\x00'
tRp228
sg26
g10
(g11
S'\x81\xacP\xfe\xc6,A@'
tRp229
sg28
g10
(g11
S"}*\xb0'!\xf4\x8f?"
tRp230
sg30
I1
sg31
F0
sg32
g10
(g11
S'\xb9\xbf\x1e\xe1s\x01\xe8?'
tRp231
sg34
g1
(g2
(I0
tS'b'
tRp232
(I1
(I1
tg11
I00
S'w\xb1\xa6\xad\xbd\xbel@'
tbsg36
g10
(g11
S')A4\xfa"\x9a\x03@'
tRp233
sg38
I0
sg39
I0
sg40
g1
(g2
(I0
tS'b'
tRp234
(I1
(I1
tg11
I00
S'\xcbV|c\xa2N\x12@'
tbsg42
I0
sg43
I0
sg44
g10
(g11
S'\x13\xc4dOA\x86\xf8?'
tRp235
sg46
g10
(g11
S'\x04 \t\x1aE\xb4\x9a@'
tRp236
sg48
g10
(g11
S'\xabp\xe8#?g\xe0?'
tRp237
sg50
I0
sg51
g10
(g11
S'3\xb2^D\x1c\xb9S@'
tRp238
ssg53
S'9'
sg55
F-68.731999999999999
sg56
g10
(g11
S'\xd5x\xe9&1(!\xc0'
tRp239
sg58
(dp240
g38
I0
sg24
g228
sg17
g227
sg19
F0.27100000000000002
sg20
I0
sg21
I0
sg22
I0
sg23
I0
sg16
I0
sg26
g229
sg28
g230
sg31
F0
sg32
g231
sg44
g235
sg34
g232
sg36
g233
sg40
g234
sg15
I0
sg39
I0
sg50
I0
sg42
I0
sg43
I0
sg30
I1
sg46
g236
sg48
g237
sg51
g238
ssg60
I5
sg61
S'1'
sg62
F5.0281500000000001
sg63
S'3451'
p241
sg65
g10
(g11
S'\xf8\x89\x03hJ+\xe9@'
tRp242
sg67
g10
(g11
S'\x95)\xe6 .\xd9\xe7@'
tRp243
sba(idata_structure
C_TSi
p244
(dp245
g9
g10
(g11
S'\xfc\xa9\xf1\xd2Mb`?'
tRp246
sg13
(dp247
g15
I3
sg16
I0
sg17
g10
(g11
S'\x00\x00\x00\x00\x00\x00\x00\x00'
tRp248
sg19
F0.27900000000000003
sg20
I0
sg21
I0
sg22
I0
sg23
I0
sg24
g10
(g11
S'\x00\x00\x00\x00\x00\x00\x00\x00'
tRp249
sg26
g10
(g11
S'\xc2e>\x88\xe8\xa7I@'
tRp250
sg28
g10
(g11
S'6\xec\xb6\xa2gx\x8a?'
tRp251
sg30
I3
sg31
F0
sg32
g10
(g11
S'@\xd6\x8e\x91\x90\x9f\xe6?'
tRp252
sg34
g1
(g2
(I0
tS'b'
tRp253
(I1
(I1
tg11
I00
S'\x86\x1d\x86\x97\xad3g@'
tbsg36
g10
(g11
S'\x12\x0b\xac#Ch\xf2?'
tRp254
sg38
I0
sg39
I0
sg40
g1
(g2
(I0
tS'b'
tRp255
(I1
(I1
tg11
I00
S'35z\xcd.\xd4 @'
tbsg42
I0
sg43
I0
sg44
g10
(g11
S'\xcf\xbc\x15\xfd\xf5\x03\xf6?'
tRp256
sg46
g10
(g11
S'\x1e\\n\xff\xc10\xab@'
tRp257
sg48
g10
(g11
S'N\xa1\x1b\xfd]\xf5\xde?'
tRp258
sg50
I0
sg51
g10
(g11
S"g'\xbd\x8a:HQ@"
tRp259
ssg53
S'12'
p260
sg55
F-69.397099999999995
sg56
g10
(g11
S':\xb4\xc8v\xbe\xff"\xc0'
tRp261
sg58
(dp262
g38
I0
sg24
g249
sg17
g248
sg19
F0.27900000000000003
sg20
I0
sg21
I0
sg22
I0
sg23
I0
sg16
I0
sg26
g250
sg28
g251
sg31
F0
sg32
g252
sg44
g256
sg34
g253
sg36
g254
sg40
g255
sg15
I3
sg39
I0
sg50
I0
sg42
I0
sg43
I0
sg30
I3
sg46
g257
sg48
g258
sg51
g259
ssg60
I5
sg61
S'1'
sg62
F5.0419200000000002
sg63
S'3562'
p263
sg65
g10
(g11
S'hur\x06\xab*\xe9@'
tRp264
sg67
g10
(g11
S'Vb\x9e\x95\xef\xd6\xe7@'
tRp265
sba(idata_structure
C_TSi
p266
(dp267
g9
g10
(g11
S'\xfa~j\xbct\x93h?'
tRp268
sg13
(dp269
g15
I0
sg16
I0
sg17
g10
(g11
S'\x00\x00\x00\x00\x00\x00\x00\x00'
tRp270
sg19
F0.25800000000000001
sg20
I0
sg21
I0
sg22
I0
sg23
I0
sg24
g10
(g11
S'\x00\x00\x00\x00\x00\x00\x00\x00'
tRp271
sg26
g10
(g11
S'\xe1dU=\xf2\x98A@'
tRp272
sg28
g10
(g11
S'\xfao\xde\xd1C\xc0\x8c?'
tRp273
sg30
I3
sg31
F0
sg32
g10
(g11
S'\xbf\xeb2\xdbL\x07\xf3?'
tRp274
sg34
g1
(g2
(I0
tS'b'
tRp275
(I1
(I1
tg11
I00
S'\x08\x95\xbcr\x81co@'
tbsg36
g10
(g11
S'\xf2\xf7\xf2Fx\xd3\xf3?'
tRp276
sg38
I0
sg39
I0
sg40
g1
(g2
(I0
tS'b'
tRp277
(I1
(I1
tg11
I00
S'.\x1f\x01\x94\xf7\xfb\x13@'
tbsg42
I0
sg43
I0
sg44
g10
(g11
S'h\xeeCK\xd0:\xfd?'
tRp278
sg46
g10
(g11
S'A\x8c\x02\x9b\xb3D\xa0@'
tRp279
sg48
g10
(g11
S'vF\xa2\xea\x80\x08\xde?'
tRp280
sg50
I0
sg51
g10
(g11
S'\xeb\xe1nj\x06YP@'
tRp281
ssg53
S'34'
p282
sg55
F-69.313999999999993
sg56
g10
(g11
S'\xa6\x9b\xc4 \xb0\xb2!\xc0'
tRp283
sg58
(dp284
g38
I0
sg24
g271
sg17
g270
sg19
F0.25800000000000001
sg20
I0
sg21
I0
sg22
I0
sg23
I0
sg16
I0
sg26
g272
sg28
g273
sg31
F0
sg32
g274
sg44
g278
sg34
g275
sg36
g276
sg40
g277
sg15
I0
sg39
I0
sg50
I0
sg42
I0
sg43
I0
sg30
I3
sg46
g279
sg48
g280
sg51
g281
ssg60
I5
sg61
S'1'
sg62
F5.0425599999999999
sg63
S'3563'
p285
sg65
g10
(g11
S'hur\x06\xab*\xe9@'
tRp286
sg67
g10
(g11
S'Vb\x9e\x95\xef\xd6\xe7@'
tRp287
sba(idata_structure
C_TSi
p288
(dp289
g9
g10
(g11
S'{\x14\xaeG\xe1zt?'
tRp290
sg13
(dp291
g15
I7
sg16
I0
sg17
g10
(g11
S'\x9bb\xd5\x8c:\xb4\xf1?'
tRp292
sg19
F0.23000000000000001
sg20
I5
sg21
I2
sg22
I1
sg23
I0
sg24
g10
(g11
S'\x00\x00\x00\x00\x00\x00\x00\x00'
tRp293
sg26
g10
(g11
S'\xf2\x9f\xe1\r#\xc5@@'
tRp294
sg28
g10
(g11
S'E\xc4\x8b\xc6\xbd"\x92?'
tRp295
sg30
I9
sg31
F0
sg32
g10
(g11
S'\xcb\xfaO\x9b\x8d!\xfa?'
tRp296
sg34
g1
(g2
(I0
tS'b'
tRp297
(I1
(I1
tg11
I00
S'\xf3\xf3_\x95\x8cGa@'
tbsg36
g10
(g11
S'\xc0\x92m1\x997\xed?'
tRp298
sg38
I0
sg39
I0
sg40
g1
(g2
(I0
tS'b'
tRp299
(I1
(I1
tg11
I00
S'`\n:x\x8d\xa4\x08@'
tbsg42
I0
sg43
I0
sg44
g10
(g11
S'\xc4\xfd\xa1\xa0\xc8\xd1\x01@'
tRp300
sg46
g10
(g11
S'\x90\x1a\xab\x8f\x9b\x95\x96@'
tRp301
sg48
g10
(g11
S"\x87\x9e@'\x86\x92\xdf?"
tRp302
sg50
I0
sg51
g10
(g11
S'\x11\xa8\x1e>|qF@'
tRp303
ssg53
S'47'
p304
sg55
F-69.212100000000007
sg56
g10
(g11
S'H\xe1z\x14\xae\x87 \xc0'
tRp305
sg58
(dp306
g38
I0
sg24
g293
sg17
g292
sg19
F0.23000000000000001
sg20
I5
sg21
I2
sg22
I1
sg23
I0
sg16
I0
sg26
g294
sg28
g295
sg31
F0
sg32
g296
sg44
g300
sg34
g297
sg36
g298
sg40
g299
sg15
I7
sg39
I0
sg50
I0
sg42
I0
sg43
I0
sg30
I9
sg46
g301
sg48
g302
sg51
g303
ssg60
I5
sg61
S'1'
sg62
F5.04115
sg63
S'3565'
p307
sg65
g10
(g11
S'hur\x06\xab*\xe9@'
tRp308
sg67
g10
(g11
S'\x89\x95\xd1H\x0f\xd7\xe7@'
tRp309
sba(idata_structure
C_TSi
p310
(dp311
g9
g10
(g11
S'{\x14\xaeG\xe1z\x84?'
tRp312
sg13
(dp313
g15
I1
sg16
I0
sg17
g10
(g11
S'\x00\x00\x00\x00\x00\x00\x00\x00'
tRp314
sg19
F0.13200000000000001
sg20
I0
sg21
I1
sg22
I0
sg23
I0
sg24
g10
(g11
S'\x00\x00\x00\x00\x00\x00\x00\x00'
tRp315
sg26
g10
(g11
S'o\xce\x81\xba\xb9\xc1\x1c@'
tRp316
sg28
g10
(g11
S'*b9O\xe2f\x82?'
tRp317
sg30
I5
sg31
F0.0018148820326678765
sg32
g10
(g11
S'\x18\x1dK(L$\xf5?'
tRp318
sg34
g1
(g2
(I0
tS'b'
tRp319
(I1
(I1
tg11
I00
S'I)\xf2f{Ih@'
tbsg36
g10
(g11
S'i\x91\x7f\x81\xday\xf7?'
tRp320
sg38
I0
sg39
I0
sg40
g1
(g2
(I0
tS'b'
tRp321
(I1
(I1
tg11
I00
S'\xac\x93p~7?\xf4?'
tbsg42
I0
sg43
I0
sg44
g10
(g11
S';\xd2\x18\xb4?\xe5\xff?'
tRp322
sg46
g10
(g11
S'z\x86\\\x08\xab\xa2S@'
tRp323
sg48
g10
(g11
S'+\xc4\xa2\x03\x8a\x14\xdd?'
tRp324
sg50
I0
sg51
g10
(g11
S'\x7f\xd2\xfa^"pL@'
tRp325
ssg53
S'87'
p326
sg55
F-69.212000000000003
sg56
g10
(g11
S'h\x91\xed|?\xb5\x1e\xc0'
tRp327
sg58
(dp328
g38
I0
sg24
g315
sg17
g314
sg19
F0.13200000000000001
sg20
I0
sg21
I1
sg22
I0
sg23
I0
sg16
I0
sg26
g316
sg28
g317
sg31
F0.0018148820326678765
sg32
g318
sg44
g322
sg34
g319
sg36
g320
sg40
g321
sg15
I1
sg39
I0
sg50
I0
sg42
I0
sg43
I0
sg30
I5
sg46
g323
sg48
g324
sg51
g325
ssg60
I5
sg61
S'1'
sg62
F5.0381799999999997
sg63
S'3565'
p329
sg65
g10
(g11
S'hur\x06\xab*\xe9@'
tRp330
sg67
g10
(g11
S'\x1b\xa1\x9f\xa9\x0e\xd7\xe7@'
tRp331
sba(idata_structure
C_TSi
p332
(dp333
g9
g10
(g11
S'y\xe9&1\x08\xac|?'
tRp334
sg13
(dp335
g15
I1
sg16
I0
sg17
g10
(g11
S'\x00\x00\x00\x00\x00\x00\x00\x00'
tRp336
sg19
F0.377
sg20
I0
sg21
I0
sg22
I0
sg23
I0
sg24
g10
(g11
S'\x00\x00\x00\x00\x00\x00\x00\x00'
tRp337
sg26
g10
(g11
S'\x18!\x7f\xd8\xaa\xd31@'
tRp338
sg28
g10
(g11
S'\x1d\xd72ZM\xb6\x90?'
tRp339
sg30
I0
sg31
F0
sg32
g10
(g11
S'\x9dP\xb9\xf8\xf5\xb5\xf6?'
tRp340
sg34
g1
(g2
(I0
tS'b'
tRp341
(I1
(I1
tg11
I00
S'\x1dN\xec\x9e\xa1\xc2\x80@'
tbsg36
g10
(g11
S'\xcf%\xbc\xd6\xce\xee\xf9?'
tRp342
sg38
I0
sg39
I0
sg40
g1
(g2
(I0
tS'b'
tRp343
(I1
(I1
tg11
I00
S'\x11\x80\xc3\xfa\xf5i\x07@'
tbsg42
I0
sg43
I0
sg44
g10
(g11
S'\x9a\xda;\xc2X\xc4\x00@'
tRp344
sg46
g10
(g11
S'n\xecC\xd0\x9aS|@'
tRp345
sg48
g10
(g11
S'}\xca\x16\x119>\xdd?'
tRp346
sg50
I0
sg51
g10
(g11
S'\xa8\x06\x0b)\t\xe8T@'
tRp347
ssg53
S'1010'
p348
sg55
F-69.0488
sg56
g10
(g11
S'o\x12\x83\xc0\xca!\x1e\xc0'
tRp349
sg58
(dp350
g38
I0
sg24
g337
sg17
g336
sg19
F0.377
sg20
I0
sg21
I0
sg22
I0
sg23
I0
sg16
I0
sg26
g338
sg28
g339
sg31
F0
sg32
g340
sg44
g344
sg34
g341
sg36
g342
sg40
g343
sg15
I1
sg39
I0
sg50
I0
sg42
I0
sg43
I0
sg30
I0
sg46
g345
sg48
g346
sg51
g347
ssg60
I5
sg61
S'1'
sg62
F5.0349899999999996
sg63
S'3567'
p351
sg65
g10
(g11
S'\xf8\x89\x03hJ+\xe9@'
tRp352
sg67
g10
(g11
S'\x1b\xa1\x9f\xa9\x0e\xd7\xe7@'
tRp353
sba(idata_structure
C_TSi
p354
(dp355
g9
g10
(g11
S'\xfc\xa9\xf1\xd2Mbp?'
tRp356
sg13
(dp357
g15
I0
sg16
I0
sg17
g10
(g11
S'\x00\x00\x00\x00\x00\x00\x00\x00'
tRp358
sg19
F0.14399999999999999
sg20
I0
sg21
I0
sg22
I0
sg23
I0
sg24
g10
(g11
S'\x00\x00\x00\x00\x00\x00\x00\x00'
tRp359
sg26
g10
(g11
S'\xcd?\xff\xf4q\xcc5@'
tRp360
sg28
g10
(g11
S'\xb7\xf2\xf9+\xbb\x10\x85?'
tRp361
sg30
I0
sg31
F0
sg32
g10
(g11
S'\xcb\n\x1b\x9cx}\xf7?'
tRp362
sg34
g1
(g2
(I0
tS'b'
tRp363
(I1
(I1
tg11
I00
S'U\xbfH\x13\xe3\x8d|@'
tbsg36
g10
(g11
S'\xae\xb73\x1d>\n\xf1?'
tRp364
sg38
I0
sg39
I0
sg40
g1
(g2
(I0
tS'b'
tRp365
(I1
(I1
tg11
I00
S'\xde\x836\x00(\x88\x02@'
tbsg42
I0
sg43
I0
sg44
g10
(g11
S'k\xb9\x88\xfbk\xe7\x00@'
tRp366
sg46
g10
(g11
S'\xe8x\x9bi\xf7~\x84@'
tRp367
sg48
g10
(g11
S't+\xbe^ql\xdd?'
tRp368
sg50
I0
sg51
g10
(g11
S'\xcb\xe8\x00K@RT@'
tRp369
ssg53
S'29'
p370
sg55
F-68.879499999999993
sg56
g10
(g11
S'\xc7K7\x89A\xe0 \xc0'
tRp371
sg58
(dp372
g38
I0
sg24
g359
sg17
g358
sg19
F0.14399999999999999
sg20
I0
sg21
I0
sg22
I0
sg23
I0
sg16
I0
sg26
g360
sg28
g361
sg31
F0
sg32
g362
sg44
g366
sg34
g363
sg36
g364
sg40
g365
sg15
I0
sg39
I0
sg50
I0
sg42
I0
sg43
I0
sg30
I0
sg46
g367
sg48
g368
sg51
g369
ssg60
I5
sg61
S'1'
sg62
F5.0456399999999997
sg63
S'3570'
p373
sg65
g10
(g11
S'\xf8\x89\x03hJ+\xe9@'
tRp374
sg67
g10
(g11
S'\x1b\xa1\x9f\xa9\x0e\xd7\xe7@'
tRp375
sba(idata_structure
C_TSi
p376
(dp377
g9
g10
(g11
S'{\x14\xaeG\xe1zt?'
tRp378
sg13
(dp379
g15
I0
sg16
I0
sg17
g10
(g11
S'\x00\x00\x00\x00\x00\x00\x00\x00'
tRp380
sg19
F0.14899999999999999
sg20
I0
sg21
I0
sg22
I0
sg23
I0
sg24
g10
(g11
S'\x00\x00\x00\x00\x00\x00\x00\x00'
tRp381
sg26
g10
(g11
S'm\xd9\x86\x86H\xe1;@'
tRp382
sg28
g10
(g11
S'<\xdd\xe9\x95\x83\xee\x91?'
tRp383
sg30
I0
sg31
F0
sg32
g10
(g11
S'=\x11[\xebs\xb8\xf8?'
tRp384
sg34
g1
(g2
(I0
tS'b'
tRp385
(I1
(I1
tg11
I00
S'\x9fj\xc221\xf1z@'
tbsg36
g10
(g11
S'4\xf6\x0b\xaf\xb3F\xed?'
tRp386
sg38
I0
sg39
I0
sg40
g1
(g2
(I0
tS'b'
tRp387
(I1
(I1
tg11
I00
S'P\xba>\xba\xd8~\x05@'
tbsg42
I0
sg43
I0
sg44
g10
(g11
S'\x963d\xe1\x96"\x01@'
tRp388
sg46
g10
(g11
S',\x88S|\x98\xf2\x92@'
tRp389
sg48
g10
(g11
S'\xa2s\xa5\xa8A]\xde?'
tRp390
sg50
I0
sg51
g10
(g11
S'\x08\xa2\xceE\xe7\xd9T@'
tRp391
ssg53
S'32'
p392
sg55
F-68.873199999999997
sg56
g10
(g11
S'\x00\x00\x00\x00\x00  \xc0'
tRp393
sg58
(dp394
g38
I0
sg24
g381
sg17
g380
sg19
F0.14899999999999999
sg20
I0
sg21
I0
sg22
I0
sg23
I0
sg16
I0
sg26
g382
sg28
g383
sg31
F0
sg32
g384
sg44
g388
sg34
g385
sg36
g386
sg40
g387
sg15
I0
sg39
I0
sg50
I0
sg42
I0
sg43
I0
sg30
I0
sg46
g389
sg48
g390
sg51
g391
ssg60
I5
sg61
S'1'
sg62
F5.0394800000000002
sg63
S'3570'
p395
sg65
g10
(g11
S'\xf8\x89\x03hJ+\xe9@'
tRp396
sg67
g10
(g11
S'\x1b\xa1\x9f\xa9\x0e\xd7\xe7@'
tRp397
sba(idata_structure
C_TSi
p398
(dp399
g9
g10
(g11
S'\xfc\xa9\xf1\xd2Mbp?'
tRp400
sg13
(dp401
g15
I1
sg16
I0
sg17
g10
(g11
S'\x00\x00\x00\x00\x00\x00\x00\x00'
tRp402
sg19
F0.112
sg20
I0
sg21
I0
sg22
I0
sg23
I0
sg24
g10
(g11
S'\x00\x00\x00\x00\x00\x00\x00\x00'
tRp403
sg26
g10
(g11
S'\xd1\xaez|\xcb\xcc)@'
tRp404
sg28
g10
(g11
S"\x13\x0bW',\xf4w?"
tRp405
sg30
I0
sg31
F0
sg32
g10
(g11
S'Q4\xf1d[\xb9\xf5?'
tRp406
sg34
g1
(g2
(I0
tS'b'
tRp407
(I1
(I1
tg11
I00
S'\r\xb7\x81\xdd\x83\x0e|@'
tbsg36
g10
(g11
S'D\x00e.w\xf5\xfc?'
tRp408
sg38
I0
sg39
I0
sg40
g1
(g2
(I0
tS'b'
tRp409
(I1
(I1
tg11
I00
S'P:\x04\x98\xd6\xbd\x03@'
tbsg42
I0
sg43
I0
sg44
g10
(g11
S'\xba\x8c\x90\xa9\xfcO\x00@'
tRp410
sg46
g10
(g11
S'\xd9\x87t{\xde\xd8l@'
tRp411
sg48
g10
(g11
S'\x88\xa4\x87\x1a\xdc\x86\xde?'
tRp412
sg50
I0
sg51
g10
(g11
S'\x00\xb0i\x95\x16\x16U@'
tRp413
ssg53
S'25'
p414
sg55
F-68.7744
sg56
g10
(g11
S'\xf6(\\\x8f\xc25!\xc0'
tRp415
sg58
(dp416
g38
I0
sg24
g403
sg17
g402
sg19
F0.112
sg20
I0
sg21
I0
sg22
I0
sg23
I0
sg16
I0
sg26
g404
sg28
g405
sg31
F0
sg32
g406
sg44
g410
sg34
g407
sg36
g408
sg40
g409
sg15
I1
sg39
I0
sg50
I0
sg42
I0
sg43
I0
sg30
I0
sg46
g411
sg48
g412
sg51
g413
ssg60
I5
sg61
S'1'
sg62
F5.0389699999999999
sg63
S'3571'
p417
sg65
g10
(g11
S'\xf8\x89\x03hJ+\xe9@'
tRp418
sg67
g10
(g11
S'\x1b\xa1\x9f\xa9\x0e\xd7\xe7@'
tRp419
sba(idata_structure
C_TSi
p420
(dp421
g9
g10
(g11
S'\xfc\xa9\xf1\xd2Mbp?'
tRp422
sg13
(dp423
g15
I1
sg16
I0
sg17
g10
(g11
S'\x00\x00\x00\x00\x00\x00\x00\x00'
tRp424
sg19
F0.23200000000000001
sg20
I0
sg21
I0
sg22
I0
sg23
I0
sg24
g10
(g11
S'\x00\x00\x00\x00\x00\x00\x00\x00'
tRp425
sg26
g10
(g11
S'~\x90\xb7^\x87\nD@'
tRp426
sg28
g10
(g11
S'\x7f\x81\xca(\x84\xc6\x93?'
tRp427
sg30
I0
sg31
F0
sg32
g10
(g11
S'\xd4#i\xfd\x07\xc9\xf7?'
tRp428
sg34
g1
(g2
(I0
tS'b'
tRp429
(I1
(I1
tg11
I00
S'\xacS\x15*\xc9Is@'
tbsg36
g10
(g11
S'.h\xe0v(\xbf\xec?'
tRp430
sg38
I0
sg39
I0
sg40
g1
(g2
(I0
tS'b'
tRp431
(I1
(I1
tg11
I00
S'\xa6\xb3\x97\xc6\xe9\x1b\n@'
tbsg42
I0
sg43
I0
sg44
g10
(g11
S'\xb0\xde>X}\r\x01@'
tRp432
sg46
g10
(g11
S'L5\xfd5\xc9\x97\xa2@'
tRp433
sg48
g10
(g11
S'\x9e\xf9\xd0\xb1,\x05\xdd?'
tRp434
sg50
I0
sg51
g10
(g11
S'\x8a\x11*\xb8\xe1OT@'
tRp435
ssg53
S'31'
p436
sg55
F-68.783199999999994
sg56
g10
(g11
S"'1\x08\xac\x1c\x9a \xc0"
tRp437
sg58
(dp438
g38
I0
sg24
g425
sg17
g424
sg19
F0.23200000000000001
sg20
I0
sg21
I0
sg22
I0
sg23
I0
sg16
I0
sg26
g426
sg28
g427
sg31
F0
sg32
g428
sg44
g432
sg34
g429
sg36
g430
sg40
g431
sg15
I1
sg39
I0
sg50
I0
sg42
I0
sg43
I0
sg30
I0
sg46
g433
sg48
g434
sg51
g435
ssg60
I5
sg61
S'1'
sg62
F5.0367699999999997
sg63
S'3571'
p439
sg65
g10
(g11
S'\xf8\x89\x03hJ+\xe9@'
tRp440
sg67
g10
(g11
S'\x1b\xa1\x9f\xa9\x0e\xd7\xe7@'
tRp441
sba(idata_structure
C_TSi
p442
(dp443
g9
g10
(g11
S'{\x14\xaeG\xe1z\x84?'
tRp444
sg13
(dp445
g15
I1
sg16
I0
sg17
g10
(g11
S'\x00\x00\x00\x00\x00\x00\x00\x00'
tRp446
sg19
F0.13100000000000001
sg20
I0
sg21
I0
sg22
I0
sg23
I0
sg24
g10
(g11
S'\x00\x00\x00\x00\x00\x00\x00\x00'
tRp447
sg26
g10
(g11
S'\xddW\xdeA\xae\xba>@'
tRp448
sg28
g10
(g11
S'\xc0\t^\x87\xb9G\xa0?'
tRp449
sg30
I0
sg31
F0.0045413260672116261
sg32
g10
(g11
S'\xfb%\xe3\xc2\x83\r\xf7?'
tRp450
sg34
g1
(g2
(I0
tS'b'
tRp451
(I1
(I1
tg11
I00
S'\xf3\xaa\x167\xc3wp@'
tbsg36
g10
(g11
S'\x99\xb6\xc4##\xfb\xea?'
tRp452
sg38
I0
sg39
I0
sg40
g1
(g2
(I0
tS'b'
tRp453
(I1
(I1
tg11
I00
S'\x82\xd2\xee-\xb1\x96\x04@'
tbsg42
I0
sg43
I0
sg44
g10
(g11
S'e\xc9\x9b\xa8\xe8\xdd\x00@'
tRp454
sg46
g10
(g11
S'\xbc\xc8a\xbe\x95\x95\x97@'
tRp455
sg48
g10
(g11
S'\x98\xbe\xf87e\xb1\xdd?'
tRp456
sg50
I0
sg51
g10
(g11
S'r\xbe#\xa9>\xa7T@'
tRp457
ssg53
S'23'
p458
sg55
F-68.744900000000001
sg56
g10
(g11
S'\xd9\xce\xf7S\xe3% \xc0'
tRp459
sg58
(dp460
g38
I0
sg24
g447
sg17
g446
sg19
F0.13100000000000001
sg20
I0
sg21
I0
sg22
I0
sg23
I0
sg16
I0
sg26
g448
sg28
g449
sg31
F0.0045413260672116261
sg32
g450
sg44
g454
sg34
g451
sg36
g452
sg40
g453
sg15
I1
sg39
I0
sg50
I0
sg42
I0
sg43
I0
sg30
I0
sg46
g455
sg48
g456
sg51
g457
ssg60
I5
sg61
S'1'
sg62
F5.0434299999999999
sg63
S'3572'
p461
sg65
g10
(g11
S'\xf8\x89\x03hJ+\xe9@'
tRp462
sg67
g10
(g11
S'\xf05\x04G\xef\xd6\xe7@'
tRp463
sba(idata_structure
C_TSi
p464
(dp465
g9
g10
(g11
S'\xfc\xa9\xf1\xd2Mbp?'
tRp466
sg13
(dp467
g15
I0
sg16
I0
sg17
g10
(g11
S'\x00\x00\x00\x00\x00\x00\x00\x00'
tRp468
sg19
F0.082000000000000003
sg20
I0
sg21
I0
sg22
I0
sg23
I0
sg24
g10
(g11
S'\x00\x00\x00\x00\x00\x00\x00\x00'
tRp469
sg26
g10
(g11
S'\x02\xbe\x98+!2<@'
tRp470
sg28
g10
(g11
S'QJ6\xe7\x9b\xcf\x86?'
tRp471
sg30
I0
sg31
F0
sg32
g10
(g11
S'\xb0N\x95\x91\xb8M\xfd?'
tRp472
sg34
g1
(g2
(I0
tS'b'
tRp473
(I1
(I1
tg11
I00
S'Z\xb4\x91\x0fK\xd2s@'
tbsg36
g10
(g11
S'\xb8\xcc\xa6\x87\xd0:\xe5?'
tRp474
sg38
I0
sg39
I0
sg40
g1
(g2
(I0
tS'b'
tRp475
(I1
(I1
tg11
I00
S'fZ\xe0\x93\x1e7\x01@'
tbsg42
I0
sg43
I0
sg44
g10
(g11
S'\x9f\xbb\xd3\x1e\x82\xae\x02@'
tRp476
sg46
g10
(g11
S'\xa1s\xa3\xeeQR\x90@'
tRp477
sg48
g10
(g11
S'o\xe0B\x8c<\xa5\xde?'
tRp478
sg50
I0
sg51
g10
(g11
S'\xff\x17\xd4\xf6H8P@'
tRp479
ssg53
S'25'
p480
sg55
F-69.425600000000003
sg56
g10
(g11
S'V\x0e-\xb2\x9d/!\xc0'
tRp481
sg58
(dp482
g38
I0
sg24
g469
sg17
g468
sg19
F0.082000000000000003
sg20
I0
sg21
I0
sg22
I0
sg23
I0
sg16
I0
sg26
g470
sg28
g471
sg31
F0
sg32
g472
sg44
g476
sg34
g473
sg36
g474
sg40
g475
sg15
I0
sg39
I0
sg50
I0
sg42
I0
sg43
I0
sg30
I0
sg46
g477
sg48
g478
sg51
g479
ssg60
I5
sg61
S'1'
sg62
F5.0476599999999996
sg63
S'3683'
p483
sg65
g10
(g11
S'hur\x06\xab*\xe9@'
tRp484
sg67
g10
(g11
S'\xf05\x04G\xef\xd6\xe7@'
tRp485
sba(idata_structure
C_TSi
p486
(dp487
g9
g10
(g11
S'{\x14\xaeG\xe1zt?'
tRp488
sg13
(dp489
g15
I0
sg16
I0
sg17
g10
(g11
S'\x00\x00\x00\x00\x00\x00\x00\x00'
tRp490
sg19
F0.17000000000000001
sg20
I0
sg21
I0
sg22
I0
sg23
I0
sg24
g10
(g11
S'\x00\x00\x00\x00\x00\x00\x00\x00'
tRp491
sg26
g10
(g11
S'Z\x83\xe9a\x93\xa4E@'
tRp492
sg28
g10
(g11
S'\x91\x1b\x81\xa9\xca\xf0\x96?'
tRp493
sg30
I0
sg31
F0
sg32
g10
(g11
S'\x1ce\x13\xc6;\x04\xfa?'
tRp494
sg34
g1
(g2
(I0
tS'b'
tRp495
(I1
(I1
tg11
I00
S'W\xa7{\xa6\xaa\x95e@'
tbsg36
g10
(g11
S"\x19P\xe2c'm\xeb?"
tRp496
sg38
I0
sg39
I0
sg40
g1
(g2
(I0
tS'b'
tRp497
(I1
(I1
tg11
I00
S'g\xf0`\xd4\x8b\xb6\x08@'
tbsg42
I0
sg43
I0
sg44
g10
(g11
S'3\xa4\x9a?F\xfa\x01@'
tRp498
sg46
g10
(g11
S'\x11v\x85\xd05\x11\xa6@'
tRp499
sg48
g10
(g11
S'\x19\x81\xc8\x84\xf2\x93\xdc?'
tRp500
sg50
I0
sg51
g10
(g11
S'&U\xa9\xf3I\xd0M@'
tRp501
ssg53
S'41'
p502
sg55
F-69.287000000000006
sg56
g10
(g11
S'L7\x89A`\xa5 \xc0'
tRp503
sg58
(dp504
g38
I0
sg24
g491
sg17
g490
sg19
F0.17000000000000001
sg20
I0
sg21
I0
sg22
I0
sg23
I0
sg16
I0
sg26
g492
sg28
g493
sg31
F0
sg32
g494
sg44
g498
sg34
g495
sg36
g496
sg40
g497
sg15
I0
sg39
I0
sg50
I0
sg42
I0
sg43
I0
sg30
I0
sg46
g499
sg48
g500
sg51
g501
ssg60
I5
sg61
S'1'
sg62
F5.0497100000000001
sg63
S'3685'
p505
sg65
g10
(g11
S'hur\x06\xab*\xe9@'
tRp506
sg67
g10
(g11
S'\x95)\xe6 .\xd9\xe7@'
tRp507
sba(idata_structure
C_TSi
p508
(dp509
g9
g10
(g11
S'\xfc\xa9\xf1\xd2Mb`?'
tRp510
sg13
(dp511
g15
I3
sg16
I0
sg17
g10
(g11
S'H\xae\xdfV.y\xc6?'
tRp512
sg19
F0.35999999999999999
sg20
I1
sg21
I2
sg22
I0
sg23
I0
sg24
g10
(g11
S'\x00\x00\x00\x00\x00\x00\x00\x00'
tRp513
sg26
g10
(g11
S'\x1b?A&\x11"a@'
tRp514
sg28
g10
(g11
S'\xae\xc2h\x97\xf0\xfd\x96?'
tRp515
sg30
I5
sg31
F0
sg32
g10
(g11
S'\xe7?\xab\xca\x9dL\xd4?'
tRp516
sg34
g1
(g2
(I0
tS'b'
tRp517
(I1
(I1
tg11
I00
S'I%\x12n\x98 s@'
tbsg36
g10
(g11
S'\xf0\x01W\x91\xd1 \xfe?'
tRp518
sg38
I0
sg39
I0
sg40
g1
(g2
(I0
tS'b'
tRp519
(I1
(I1
tg11
I00
S'\xaa\x93\xeb\x98>\x871@'
tbsg42
I0
sg43
I0
sg44
g10
(g11
S'\xf8L\xd9\xd3\x82Z\xec?'
tRp520
sg46
g10
(g11
S'\x17\xffZ\x91Z\xa2\xd8@'
tRp521
sg48
g10
(g11
S'^\x87\x13Q\xe4\xa6\xe0?'
tRp522
sg50
I0
sg51
g10
(g11
S'Hi=\x1fLzS@'
tRp523
ssg53
S'7'
sg55
F-69.224000000000004
sg56
g10
(g11
S'\xa2E\xb6\xf3\xfd\xd4$\xc0'
tRp524
sg58
(dp525
g38
I0
sg24
g513
sg17
g512
sg19
F0.35999999999999999
sg20
I1
sg21
I2
sg22
I0
sg23
I0
sg16
I0
sg26
g514
sg28
g515
sg31
F0
sg32
g516
sg44
g520
sg34
g517
sg36
g518
sg40
g519
sg15
I3
sg39
I0
sg50
I0
sg42
I0
sg43
I0
sg30
I5
sg46
g521
sg48
g522
sg51
g523
ssg60
I5
sg61
S'1'
sg62
F5.0525900000000004
sg63
S'3686'
p526
sg65
g10
(g11
S'hur\x06\xab*\xe9@'
tRp527
sg67
g10
(g11
S'\x1b\xa1\x9f\xa9\x0e\xd7\xe7@'
tRp528
sba(idata_structure
C_TSi
p529
(dp530
g9
g10
(g11
S'\xfc\xa9\xf1\xd2Mb`?'
tRp531
sg13
(dp532
g15
I0
sg16
I0
sg17
g10
(g11
S'\x00\x00\x00\x00\x00\x00\x00\x00'
tRp533
sg19
F0.34999999999999998
sg20
I0
sg21
I0
sg22
I0
sg23
I0
sg24
g10
(g11
S'\x00\x00\x00\x00\x00\x00\x00\x00'
tRp534
sg26
g10
(g11
S'\x87\xfcrj\xfc\xf4E@'
tRp535
sg28
g10
(g11
S'\xabA\x94\x05L\x07\x84?'
tRp536
sg30
I1
sg31
F0
sg32
g10
(g11
S'!\xe7u\xed\x1ef\xd9?'
tRp537
sg34
g1
(g2
(I0
tS'b'
tRp538
(I1
(I1
tg11
I00
S'\xab\x07\xb9|v\xed\x80@'
tbsg36
g10
(g11
S'Q\xcc\xbe\xf6\xe4,\xf9?'
tRp539
sg38
I0
sg39
I0
sg40
g1
(g2
(I0
tS'b'
tRp540
(I1
(I1
tg11
I00
S'u*\xd8B\x8ep%@'
tbsg42
I0
sg43
I0
sg44
g10
(g11
S'\x0bcq\x89\xce\xcf\xf0?'
tRp541
sg46
g10
(g11
S'+\xc2\xa1\xedh\x8f\xa7@'
tRp542
sg48
g10
(g11
S'\x05\x91x\x92\x7f\xa4\xdf?'
tRp543
sg50
I0
sg51
g10
(g11
S'\xd8m\xbc\xc3\xcb\xa2Y@'
tRp544
ssg53
S'21'
p545
sg55
F-69.000799999999998
sg56
g10
(g11
S'\xf0\xa7\xc6K7I#\xc0'
tRp546
sg58
(dp547
g38
I0
sg24
g534
sg17
g533
sg19
F0.34999999999999998
sg20
I0
sg21
I0
sg22
I0
sg23
I0
sg16
I0
sg26
g535
sg28
g536
sg31
F0
sg32
g537
sg44
g541
sg34
g538
sg36
g539
sg40
g540
sg15
I0
sg39
I0
sg50
I0
sg42
I0
sg43
I0
sg30
I1
sg46
g542
sg48
g543
sg51
g544
ssg60
I5
sg61
S'1'
sg62
F5.0566199999999997
sg63
S'3689'
p548
sg65
g10
(g11
S'\xf8\x89\x03hJ+\xe9@'
tRp549
sg67
g10
(g11
S'Vb\x9e\x95\xef\xd6\xe7@'
tRp550
sba(idata_structure
C_TSi
p551
(dp552
g9
g10
(g11
S'\xfc\xa9\xf1\xd2Mbp?'
tRp553
sg13
(dp554
g15
I0
sg16
I0
sg17
g10
(g11
S'\x00\x00\x00\x00\x00\x00\x00\x00'
tRp555
sg19
F0.105
sg20
I0
sg21
I0
sg22
I0
sg23
I0
sg24
g10
(g11
S'\x00\x00\x00\x00\x00\x00\x00\x00'
tRp556
sg26
g10
(g11
S'\xb0i\xe4E\x031@@'
tRp557
sg28
g10
(g11
S'\xed\xe2/\xfb\xd8\x85\x89?'
tRp558
sg30
I0
sg31
F0
sg32
g10
(g11
S'?\xb2\x81r\xdf*\xf7?'
tRp559
sg34
g1
(g2
(I0
tS'b'
tRp560
(I1
(I1
tg11
I00
S'nL\x868\xaa\xb6u@'
tbsg36
g10
(g11
S'\xbflR\x15\xa3\x0e\x00@'
tRp561
sg38
I0
sg39
I0
sg40
g1
(g2
(I0
tS'b'
tRp562
(I1
(I1
tg11
I00
S'\x90;\x87$Y2\x06@'
tbsg42
I0
sg43
I0
sg44
g10
(g11
S'\x0c\t\xbb\x8b\xe2\x7f\x00@'
tRp563
sg46
g10
(g11
S'C\xf7\x9b\x1c\x92K\x96@'
tRp564
sg48
g10
(g11
S'\r\xa0\xa5\xfe\xd5/\xde?'
tRp565
sg50
I0
sg51
g10
(g11
S'\x1c\x18\x0b\xf9\xa3\xfaT@'
tRp566
ssg53
S'19'
p567
sg55
F-68.861000000000004
sg56
g10
(g11
S'\x85\xebQ\xb8\x1e\x85!\xc0'
tRp568
sg58
(dp569
g38
I0
sg24
g556
sg17
g555
sg19
F0.105
sg20
I0
sg21
I0
sg22
I0
sg23
I0
sg16
I0
sg26
g557
sg28
g558
sg31
F0
sg32
g559
sg44
g563
sg34
g560
sg36
g561
sg40
g562
sg15
I0
sg39
I0
sg50
I0
sg42
I0
sg43
I0
sg30
I0
sg46
g564
sg48
g565
sg51
g566
ssg60
I5
sg61
S'1'
sg62
F5.0530299999999997
sg63
S'3691'
p570
sg65
g10
(g11
S'\xf8\x89\x03hJ+\xe9@'
tRp571
sg67
g10
(g11
S'\x1b\xa1\x9f\xa9\x0e\xd7\xe7@'
tRp572
sba(idata_structure
C_TSi
p573
(dp574
g9
g10
(g11
S'y\xe9&1\x08\xac\x8c?'
tRp575
sg13
(dp576
g15
I0
sg16
I0
sg17
g10
(g11
S'\x00\x00\x00\x00\x00\x00\x00\x00'
tRp577
sg19
F0.049000000000000002
sg20
I0
sg21
I0
sg22
I0
sg23
I0
sg24
g10
(g11
S'\x00\x00\x00\x00\x00\x00\x00\x00'
tRp578
sg26
g10
(g11
S'\xc3@F\xf6\xd6\xd6\x1a@'
tRp579
sg28
g10
(g11
S'\xaa\xe5\xc6\xed\x1d\xa5\x88?'
tRp580
sg30
I0
sg31
F0
sg32
g10
(g11
S'{P\xda]7\xab\xf6?'
tRp581
sg34
g1
(g2
(I0
tS'b'
tRp582
(I1
(I1
tg11
I00
S'\xcb\x9c]Vk\xe0y@'
tbsg36
g10
(g11
S"@e\x10\xf0\xb5'\xf9?"
tRp583
sg38
I0
sg39
I0
sg40
g1
(g2
(I0
tS'b'
tRp584
(I1
(I1
tg11
I00
S'.\x80\xfa<\xb1\x9a\xfe?'
tbsg42
I0
sg43
I0
sg44
g10
(g11
S'\x1b)\x0f\xe7^\xb5\x00@'
tRp585
sg46
g10
(g11
S'\x8e\xd9\xec@\xf9\x0bV@'
tRp586
sg48
g10
(g11
S'N5\x82\xdc\xc6S\xdd?'
tRp587
sg50
I0
sg51
g10
(g11
S'q\xd6Tt\x929T@'
tRp588
ssg53
S'32'
p589
sg55
F-68.858500000000006
sg56
g10
(g11
S'\xfe\xd4x\xe9&\xb1 \xc0'
tRp590
sg58
(dp591
g38
I0
sg24
g578
sg17
g577
sg19
F0.049000000000000002
sg20
I0
sg21
I0
sg22
I0
sg23
I0
sg16
I0
sg26
g579
sg28
g580
sg31
F0
sg32
g581
sg44
g585
sg34
g582
sg36
g583
sg40
g584
sg15
I0
sg39
I0
sg50
I0
sg42
I0
sg43
I0
sg30
I0
sg46
g586
sg48
g587
sg51
g588
ssg60
I5
sg61
S'1'
sg62
F5.0567799999999998
sg63
S'3691'
p592
sg65
g10
(g11
S'\xf8\x89\x03hJ+\xe9@'
tRp593
sg67
g10
(g11
S'\x1b\xa1\x9f\xa9\x0e\xd7\xe7@'
tRp594
sba(idata_structure
C_TSi
p595
(dp596
g9
g10
(g11
S'\xfc\xa9\xf1\xd2Mbp?'
tRp597
sg13
(dp598
g15
I1
sg16
I0
sg17
g10
(g11
S'\x00\x00\x00\x00\x00\x00\x00\x00'
tRp599
sg19
F0.20599999999999999
sg20
I0
sg21
I0
sg22
I0
sg23
I0
sg24
g10
(g11
S'\x00\x00\x00\x00\x00\x00\x00\x00'
tRp600
sg26
g10
(g11
S'\xc0\x9e\xfb\x97r\nC@'
tRp601
sg28
g10
(g11
S'^?\xe2Ouq\x8e?'
tRp602
sg30
I1
sg31
F0
sg32
g10
(g11
S')\xc1\xf4\xb0\x82K\xf5?'
tRp603
sg34
g1
(g2
(I0
tS'b'
tRp604
(I1
(I1
tg11
I00
S'e\r\xcf\xfe\xa4\x14v@'
tbsg36
g10
(g11
S'{\xf8\xeb\x19\xcf\xfa\xe9?'
tRp605
sg38
I0
sg39
I0
sg40
g1
(g2
(I0
tS'b'
tRp606
(I1
(I1
tg11
I00
S'63\x99\x1c\xa1\x93\x08@'
tbsg42
I0
sg43
I0
sg44
g10
(g11
S'\x1bb\x84\xe4Y\x04\x00@'
tRp607
sg46
g10
(g11
S'h\xecY\xd7K\xea\x9c@'
tRp608
sg48
g10
(g11
S'\xad\xd0\xa9\x92\x96\xf6\xdd?'
tRp609
sg50
I0
sg51
g10
(g11
S'D\xd8\xa3b\xad\xdfT@'
tRp610
ssg53
S'37'
p611
sg55
F-68.843500000000006
sg56
g10
(g11
S'\xe3\xa5\x9b\xc4 \xf0 \xc0'
tRp612
sg58
(dp613
g38
I0
sg24
g600
sg17
g599
sg19
F0.20599999999999999
sg20
I0
sg21
I0
sg22
I0
sg23
I0
sg16
I0
sg26
g601
sg28
g602
sg31
F0
sg32
g603
sg44
g607
sg34
g604
sg36
g605
sg40
g606
sg15
I1
sg39
I0
sg50
I0
sg42
I0
sg43
I0
sg30
I1
sg46
g608
sg48
g609
sg51
g610
ssg60
I5
sg61
S'1'
sg62
F5.04793
sg63
S'3691'
p614
sg65
g10
(g11
S'\xf8\x89\x03hJ+\xe9@'
tRp615
sg67
g10
(g11
S'\x1b\xa1\x9f\xa9\x0e\xd7\xe7@'
tRp616
sba(idata_structure
C_TSi
p617
(dp618
g9
g10
(g11
S'\xfc\xa9\xf1\xd2Mb`?'
tRp619
sg13
(dp620
g15
I8
sg16
I0
sg17
g10
(g11
S'<\xc5\xa7\xee\x98\xd2\xe6?'
tRp621
sg19
F0.32600000000000001
sg20
I3
sg21
I2
sg22
I0
sg23
I0
sg24
g10
(g11
S'\x00\x00\x00\x00\x00\x00\x00\x00'
tRp622
sg26
g10
(g11
S'\x1c\x9d!\xf6A\x08X@'
tRp623
sg28
g10
(g11
S'\xf0\xad\xf1\x17\x97d\x95?'
tRp624
sg30
I11
sg31
F0
sg32
g10
(g11
S'\x8d\xf9\x89\xde\x96\x17\xd9?'
tRp625
sg34
g1
(g2
(I0
tS'b'
tRp626
(I1
(I1
tg11
I00
S'\xc5\xac&:{\x89w@'
tbsg36
g10
(g11
S'x\\y\xba\xf21\xf1?'
tRp627
sg38
I0
sg39
I0
sg40
g1
(g2
(I0
tS'b'
tRp628
(I1
(I1
tg11
I00
S'r\x10\x80e\xd7Q)@'
tbsg42
I0
sg43
I0
sg44
g10
(g11
S'?\x87jA\x0c\xb8\xf0?'
tRp629
sg46
g10
(g11
S'oP\x8f\x87\x98C\xcb@'
tRp630
sg48
g10
(g11
S'\xa3\xde:\xd7\xff=\xe1?'
tRp631
sg50
I0
sg51
g10
(g11
S'z\xd8\xd8\x1b\xd0j[@'
tRp632
ssg53
S'16'
p633
sg55
F-68.772599999999997
sg56
g10
(g11
S'\xfc\xa9\xf1\xd2M\xe2#\xc0'
tRp634
sg58
(dp635
g38
I0
sg24
g622
sg17
g621
sg19
F0.32600000000000001
sg20
I3
sg21
I2
sg22
I0
sg23
I0
sg16
I0
sg26
g623
sg28
g624
sg31
F0
sg32
g625
sg44
g629
sg34
g626
sg36
g627
sg40
g628
sg15
I8
sg39
I0
sg50
I0
sg42
I0
sg43
I0
sg30
I11
sg46
g630
sg48
g631
sg51
g632
ssg60
I5
sg61
S'1'
sg62
F5.05694
sg63
S'3692'
p636
sg65
g10
(g11
S'\xf8\x89\x03hJ+\xe9@'
tRp637
sg67
g10
(g11
S'\x1b\xa1\x9f\xa9\x0e\xd7\xe7@'
tRp638
sba(idata_structure
C_TSi
p639
(dp640
g9
g10
(g11
S'\xfa~j\xbct\x93h?'
tRp641
sg13
(dp642
g15
I2
sg16
I0
sg17
g10
(g11
S'\x00\x00\x00\x00\x00\x00\x00\x00'
tRp643
sg19
F0.29299999999999998
sg20
I0
sg21
I0
sg22
I0
sg23
I0
sg24
g10
(g11
S'\x00\x00\x00\x00\x00\x00\x00\x00'
tRp644
sg26
g10
(g11
S'^m\xc6\x8cU\tJ@'
tRp645
sg28
g10
(g11
S'[W\x94\x08a\x8a\x90?'
tRp646
sg30
I6
sg31
F0
sg32
g10
(g11
S'\x14\xbc\x08\xd4\xb8\x0e\xdb?'
tRp647
sg34
g1
(g2
(I0
tS'b'
tRp648
(I1
(I1
tg11
I00
S'Z[\xb9U\xd2:\x81@'
tbsg36
g10
(g11
S'\xf4\x90=\xd2\xd5\xbd\xf2?'
tRp649
sg38
I0
sg39
I0
sg40
g1
(g2
(I0
tS'b'
tRp650
(I1
(I1
tg11
I00
S'8\x8b\xa8\xf0,\xb2%@'
tbsg42
I0
sg43
I0
sg44
g10
(g11
S'\xcc\x1c,-\xf4R\xf0?'
tRp651
sg46
g10
(g11
S'!\xefW\x1c\xbe\xd8\xb2@'
tRp652
sg48
g10
(g11
S'\x00\xa5\xbc\xd3\x8f\x0e\xe0?'
tRp653
sg50
I0
sg51
g10
(g11
S'`T\xe2X-\xb5Y@'
tRp654
ssg53
S'17'
p655
sg55
F-68.7851
sg56
g10
(g11
S'\xfc\xa9\xf1\xd2M\xa2#\xc0'
tRp656
sg58
(dp657
g38
I0
sg24
g644
sg17
g643
sg19
F0.29299999999999998
sg20
I0
sg21
I0
sg22
I0
sg23
I0
sg16
I0
sg26
g645
sg28
g646
sg31
F0
sg32
g647
sg44
g651
sg34
g648
sg36
g649
sg40
g650
sg15
I2
sg39
I0
sg50
I0
sg42
I0
sg43
I0
sg30
I6
sg46
g652
sg48
g653
sg51
g654
ssg60
I5
sg61
S'1'
sg62
F5.0476000000000001
sg63
S'3692'
p658
sg65
g10
(g11
S'\xf8\x89\x03hJ+\xe9@'
tRp659
sg67
g10
(g11
S'\xf05\x04G\xef\xd6\xe7@'
tRp660
sba(idata_structure
C_TSi
p661
(dp662
g9
g10
(g11
S'\xfa~j\xbct\x93h?'
tRp663
sg13
(dp664
g15
I0
sg16
I0
sg17
g10
(g11
S'\x00\x00\x00\x00\x00\x00\x00\x00'
tRp665
sg19
F0.13100000000000001
sg20
I0
sg21
I0
sg22
I0
sg23
I0
sg24
g10
(g11
S'\x00\x00\x00\x00\x00\x00\x00\x00'
tRp666
sg26
g10
(g11
S'J\xc3\xb5Y\x11t@@'
tRp667
sg28
g10
(g11
S'\xa0e\xb3\xe3\xfdH\x83?'
tRp668
sg30
I0
sg31
F0
sg32
g10
(g11
S'\x9f\x7f2\xb5\xd7\xeb\xf4?'
tRp669
sg34
g1
(g2
(I0
tS'b'
tRp670
(I1
(I1
tg11
I00
S"\x0b'\xf9~\xaelt@"
tbsg36
g10
(g11
S'\x12\xfe\x03\xf5\xf0O\xf2?'
tRp671
sg38
I0
sg39
I0
sg40
g1
(g2
(I0
tS'b'
tRp672
(I1
(I1
tg11
I00
S'\xa1v\x9bK\xb3@\x0b@'
tbsg42
I0
sg43
I0
sg44
g10
(g11
S'?n\x99c\xa8\xed\xff?'
tRp673
sg46
g10
(g11
S'j\x10>\xe4\xb7\xa3\x96@'
tRp674
sg48
g10
(g11
S'A2\xd8\xe0=\x05\xdd?'
tRp675
sg50
I0
sg51
g10
(g11
S'\x17B\xd9\xe2\x82UT@'
tRp676
ssg53
S'11'
p677
sg55
F-68.750600000000006
sg56
g10
(g11
S'\xfa~j\xbct\xf3!\xc0'
tRp678
sg58
(dp679
g38
I0
sg24
g666
sg17
g665
sg19
F0.13100000000000001
sg20
I0
sg21
I0
sg22
I0
sg23
I0
sg16
I0
sg26
g667
sg28
g668
sg31
F0
sg32
g669
sg44
g673
sg34
g670
sg36
g671
sg40
g672
sg15
I0
sg39
I0
sg50
I0
sg42
I0
sg43
I0
sg30
I0
sg46
g674
sg48
g675
sg51
g676
ssg60
I5
sg61
S'1'
sg62
F5.0552700000000002
sg63
S'3693'
p680
sg65
g10
(g11
S'\xf8\x89\x03hJ+\xe9@'
tRp681
sg67
g10
(g11
S'\x1b\xa1\x9f\xa9\x0e\xd7\xe7@'
tRp682
sba(idata_structure
C_TSi
p683
(dp684
g9
g10
(g11
S'\xfa~j\xbct\x93h?'
tRp685
sg13
(dp686
g15
I1
sg16
I0
sg17
g10
(g11
S'\x00\x00\x00\x00\x00\x00\x00\x00'
tRp687
sg19
F0.10299999999999999
sg20
I0
sg21
I0
sg22
I0
sg23
I0
sg24
g10
(g11
S'\x00\x00\x00\x00\x00\x00\x00\x00'
tRp688
sg26
g10
(g11
S'\xc4D\xed^63D@'
tRp689
sg28
g10
(g11
S'\xda\xe3\xae\x88JP\x8e?'
tRp690
sg30
I1
sg31
F0
sg32
g10
(g11
S'\xac#\x94w\x96p\xf3?'
tRp691
sg34
g1
(g2
(I0
tS'b'
tRp692
(I1
(I1
tg11
I00
S'd_\xfa\xb5\xf4po@'
tbsg36
g10
(g11
S'\x94}\x04b\x83Q\xfd?'
tRp693
sg38
I0
sg39
I0
sg40
g1
(g2
(I0
tS'b'
tRp694
(I1
(I1
tg11
I00
S'\xe6\xa4\x8f6\xcc&\x0f@'
tbsg42
I0
sg43
I0
sg44
g10
(g11
S'\x1f\x1bG\xf3\xcag\xfe?'
tRp695
sg46
g10
(g11
S'\x86\xc6\x7f\xc5=J\xa6@'
tRp696
sg48
g10
(g11
S'+W\x1d\xb7h\x97\xde?'
tRp697
sg50
I0
sg51
g10
(g11
S'\xf2Dx\xbd\x0b#T@'
tRp698
ssg53
S'26'
p699
sg55
F-69.427499999999995
sg56
g10
(g11
S'\x06\x81\x95C\x8b\xac!\xc0'
tRp700
sg58
(dp701
g38
I0
sg24
g688
sg17
g687
sg19
F0.10299999999999999
sg20
I0
sg21
I0
sg22
I0
sg23
I0
sg16
I0
sg26
g689
sg28
g690
sg31
F0
sg32
g691
sg44
g695
sg34
g692
sg36
g693
sg40
g694
sg15
I1
sg39
I0
sg50
I0
sg42
I0
sg43
I0
sg30
I1
sg46
g696
sg48
g697
sg51
g698
ssg60
I5
sg61
S'1'
sg62
F5.0662599999999998
sg63
S'3804'
p702
sg65
g10
(g11
S'\xf8\x89\x03hJ+\xe9@'
tRp703
sg67
g10
(g11
S'\x1b\xa1\x9f\xa9\x0e\xd7\xe7@'
tRp704
sba(idata_structure
C_TSi
p705
(dp706
g9
g10
(g11
S'\xfa~j\xbct\x93x?'
tRp707
sg13
(dp708
g15
I0
sg16
I0
sg17
g10
(g11
S'\x00\x00\x00\x00\x00\x00\x00\x00'
tRp709
sg19
F0.16600000000000001
sg20
I0
sg21
I0
sg22
I0
sg23
I0
sg24
g10
(g11
S'\x00\x00\x00\x00\x00\x00\x00\x00'
tRp710
sg26
g10
(g11
S'\xe0|a\xdd\xebe2@'
tRp711
sg28
g10
(g11
S'\xdf5d\nn\x9b\x89?'
tRp712
sg30
I0
sg31
F0
sg32
g10
(g11
S'\r\x92\xceo\x8c\xfc\xf6?'
tRp713
sg34
g1
(g2
(I0
tS'b'
tRp714
(I1
(I1
tg11
I00
S'\xf1\xa9_]\xc7\xb2s@'
tbsg36
g10
(g11
S'\xef4\xbc\x1a\xb6"\xf6?'
tRp715
sg38
I0
sg39
I0
sg40
g1
(g2
(I0
tS'b'
tRp716
(I1
(I1
tg11
I00
S'\xec\x93Rio\xf4\x07@'
tbsg42
I0
sg43
I0
sg44
g10
(g11
S'\xa7\x18\xc7\xe2j\xa0\x00@'
tRp717
sg46
g10
(g11
S'\xdf\xad\xc9\x06\xd4\xaa~@'
tRp718
sg48
g10
(g11
S'\x7f\xfd\xf2S5o\xdd?'
tRp719
sg50
I0
sg51
g10
(g11
S'\x1cCD=\x94\xf7T@'
tRp720
ssg53
S'47'
p721
sg55
F-69.346699999999998
sg56
g10
(g11
S'T\xe3\xa5\x9b\xc4\x80 \xc0'
tRp722
sg58
(dp723
g38
I0
sg24
g710
sg17
g709
sg19
F0.16600000000000001
sg20
I0
sg21
I0
sg22
I0
sg23
I0
sg16
I0
sg26
g711
sg28
g712
sg31
F0
sg32
g713
sg44
g717
sg34
g714
sg36
g715
sg40
g716
sg15
I0
sg39
I0
sg50
I0
sg42
I0
sg43
I0
sg30
I0
sg46
g718
sg48
g719
sg51
g720
ssg60
I5
sg61
S'1'
sg62
F5.0641600000000002
sg63
S'3805'
p724
sg65
g10
(g11
S'\xf8\x89\x03hJ+\xe9@'
tRp725
sg67
g10
(g11
S'\x1b\xa1\x9f\xa9\x0e\xd7\xe7@'
tRp726
sba(idata_structure
C_TSi
p727
(dp728
g9
g10
(g11
S'\xfc\xa9\xf1\xd2Mbp?'
tRp729
sg13
(dp730
g15
I1
sg16
I0
sg17
g10
(g11
S'\x00\x00\x00\x00\x00\x00\x00\x00'
tRp731
sg19
F0.105
sg20
I0
sg21
I0
sg22
I0
sg23
I0
sg24
g10
(g11
S'\x00\x00\x00\x00\x00\x00\x00\x00'
tRp732
sg26
g10
(g11
S'C\xc8\xf08\xbf\xfe6@'
tRp733
sg28
g10
(g11
S'\xe9\xc7\x018\xa1\xcc\x88?'
tRp734
sg30
I0
sg31
F0
sg32
g10
(g11
S'\xc2M3\xe7\x1c\xa7\xf6?'
tRp735
sg34
g1
(g2
(I0
tS'b'
tRp736
(I1
(I1
tg11
I00
S',N\x97\x92\xf5\x11\x82@'
tbsg36
g10
(g11
S'\x83\xc4\xd4\x8ck\xb8\xec?'
tRp737
sg38
I0
sg39
I0
sg40
g1
(g2
(I0
tS'b'
tRp738
(I1
(I1
tg11
I00
S'\x17\xb9\xa6"\xd9\x8b\x01@'
tbsg42
I0
sg43
I0
sg44
g10
(g11
S'lF\xb7]h\xdf\x00@'
tRp739
sg46
g10
(g11
S'\x9b\x05-\xb8\xc2w\x86@'
tRp740
sg48
g10
(g11
S'\xf0\xcc\xce=\x92\x80\xdd?'
tRp741
sg50
I0
sg51
g10
(g11
S'\tS}\xc98bT@'
tRp742
ssg53
S'24'
p743
sg55
F-69.209599999999995
sg56
g10
(g11
S'`\xe5\xd0"\xdb\xf9 \xc0'
tRp744
sg58
(dp745
g38
I0
sg24
g732
sg17
g731
sg19
F0.105
sg20
I0
sg21
I0
sg22
I0
sg23
I0
sg16
I0
sg26
g733
sg28
g734
sg31
F0
sg32
g735
sg44
g739
sg34
g736
sg36
g737
sg40
g738
sg15
I1
sg39
I0
sg50
I0
sg42
I0
sg43
I0
sg30
I0
sg46
g740
sg48
g741
sg51
g742
ssg60
I5
sg61
S'1'
sg62
F5.0688700000000004
sg63
S'3807'
p746
sg65
g10
(g11
S'\xf8\x89\x03hJ+\xe9@'
tRp747
sg67
g10
(g11
S'\x1b\xa1\x9f\xa9\x0e\xd7\xe7@'
tRp748
sba(idata_structure
C_TSi
p749
(dp750
g9
g10
(g11
S'\xfa~j\xbct\x93h?'
tRp751
sg13
(dp752
g15
I2
sg16
I0
sg17
g10
(g11
S'\x00\x00\x00\x00\x00\x00\x00\x00'
tRp753
sg19
F0.40899999999999997
sg20
I0
sg21
I0
sg22
I0
sg23
I0
sg24
g10
(g11
S'\x00\x00\x00\x00\x00\x00\x00\x00'
tRp754
sg26
g10
(g11
S'\xd2q\xa0\xf5\x88YF@'
tRp755
sg28
g10
(g11
S'\x91v\xa8\x96\x0e\xb1\x8f?'
tRp756
sg30
I2
sg31
F0
sg32
g10
(g11
S'y\xad\xbf\xdb\xfc\xe7\xe4?'
tRp757
sg34
g1
(g2
(I0
tS'b'
tRp758
(I1
(I1
tg11
I00
S'\x15.\xca\xf8\xdf\xc2u@'
tbsg36
g10
(g11
S'\x8a\xb1J>J\xb9\xf5?'
tRp759
sg38
I0
sg39
I1
sg40
g1
(g2
(I0
tS'b'
tRp760
(I1
(I1
tg11
I00
S'\x15NK\x88\xa7\xb4 @'
tbsg42
I0
sg43
I0
sg44
g10
(g11
S'\xdd\x87\xe1\xd5N;\xf6?'
tRp761
sg46
g10
(g11
S'\x98GiZ\xf1\x89\xa5@'
tRp762
sg48
g10
(g11
S'\xbe\xe4\xfaE\xe1\xf8\xde?'
tRp763
sg50
I1
sg51
g10
(g11
S'\xc5|\xbc\xab\x8f\xf3T@'
tRp764
ssg53
S'12'
p765
sg55
F-69.103300000000004
sg56
g10
(g11
S'\xfc\xa9\xf1\xd2MB"\xc0'
tRp766
sg58
(dp767
g38
I0
sg24
g754
sg17
g753
sg19
F0.40899999999999997
sg20
I0
sg21
I0
sg22
I0
sg23
I0
sg16
I0
sg26
g755
sg28
g756
sg31
F0
sg32
g757
sg44
g761
sg34
g758
sg36
g759
sg40
g760
sg15
I2
sg39
I1
sg50
I1
sg42
I0
sg43
I0
sg30
I2
sg46
g762
sg48
g763
sg51
g764
ssg60
I5
sg61
S'1'
sg62
F5.07064
sg63
S'3808'
p768
sg65
g10
(g11
S'\xf8\x89\x03hJ+\xe9@'
tRp769
sg67
g10
(g11
S'V\x10\x03\xdd\xf4\xd7\xe7@'
tRp770
sba(idata_structure
C_TSi
p771
(dp772
g9
g10
(g11
S'\xfc\xa9\xf1\xd2Mb`?'
tRp773
sg13
(dp774
g15
I4
sg16
I0
sg17
g10
(g11
S'N\x8d\x83\xc5\xc5\x84\xd1?'
tRp775
sg19
F0.36299999999999999
sg20
I1
sg21
I1
sg22
I0
sg23
I0
sg24
g10
(g11
S'\x00\x00\x00\x00\x00\x00\x00\x00'
tRp776
sg26
g10
(g11
S'\xb9\xb0\xbc8\x86\x07T@'
tRp777
sg28
g10
(g11
S'n\x89\x00\x87\xce\x1e\x94?'
tRp778
sg30
I7
sg31
F0
sg32
g10
(g11
S'c\xa1wP\xaf4\xda?'
tRp779
sg34
g1
(g2
(I0
tS'b'
tRp780
(I1
(I1
tg11
I00
S'FK\x02b\xaa-\x81@'
tbsg36
g10
(g11
S'b\xb5\xd3\x07\xa0\x88\xfc?'
tRp781
sg38
I0
sg39
I0
sg40
g1
(g2
(I0
tS'b'
tRp782
(I1
(I1
tg11
I00
S'\xc5\\c\x18Oi(@'
tbsg42
I0
sg43
I0
sg44
g10
(g11
S'7/\xba)C\xa9\xf0?'
tRp783
sg46
g10
(g11
S'\tf\x00\x8aw\xac\xc8@'
tRp784
sg48
g10
(g11
S'\x8e\xf3o\x81\xa4\x1f\xe0?'
tRp785
sg50
I0
sg51
g10
(g11
S'\x95\x00\xc8)\xe6\xf9Z@'
tRp786
ssg53
S'937'
p787
sg55
F-69.062899999999999
sg56
g10
(g11
S'\xcd\xcc\xcc\xcc\xcc\x8c#\xc0'
tRp788
sg58
(dp789
g38
I0
sg24
g776
sg17
g775
sg19
F0.36299999999999999
sg20
I1
sg21
I1
sg22
I0
sg23
I0
sg16
I0
sg26
g777
sg28
g778
sg31
F0
sg32
g779
sg44
g783
sg34
g780
sg36
g781
sg40
g782
sg15
I4
sg39
I0
sg50
I0
sg42
I0
sg43
I0
sg30
I7
sg46
g784
sg48
g785
sg51
g786
ssg60
I5
sg61
S'1'
sg62
F5.0605900000000004
sg63
S'3809'
p790
sg65
g10
(g11
S'\xf8\x89\x03hJ+\xe9@'
tRp791
sg67
g10
(g11
S'\x1b\xa1\x9f\xa9\x0e\xd7\xe7@'
tRp792
sba(idata_structure
C_TSi
p793
(dp794
g9
g10
(g11
S'\xfc\xa9\xf1\xd2Mb`?'
tRp795
sg13
(dp796
g15
I0
sg16
I0
sg17
g10
(g11
S'\x00\x00\x00\x00\x00\x00\x00\x00'
tRp797
sg19
F0.16600000000000001
sg20
I0
sg21
I0
sg22
I0
sg23
I0
sg24
g10
(g11
S'\x00\x00\x00\x00\x00\x00\x00\x00'
tRp798
sg26
g10
(g11
S'\xd0\xae\x10\xc5~\xc9L@'
tRp799
sg28
g10
(g11
S'\x96\x9c.\xb1\x89+\x87?'
tRp800
sg30
I1
sg31
F0
sg32
g10
(g11
S'\xf5F\x95\x97"\xde\xef?'
tRp801
sg34
g1
(g2
(I0
tS'b'
tRp802
(I1
(I1
tg11
I00
S'\xdf\xc6\x86Ez?w@'
tbsg36
g10
(g11
S'\x1cr\xdc\x18>*\xf1?'
tRp803
sg38
I0
sg39
I0
sg40
g1
(g2
(I0
tS'b'
tRp804
(I1
(I1
tg11
I00
S'{D\xb5\xab\xbc\x1f\x17@'
tbsg42
I0
sg43
I0
sg44
g10
(g11
S'\xfb\x92io,r\xfb?'
tRp805
sg46
g10
(g11
S'\xd8\xd2\xc3R\x1ae\xb5@'
tRp806
sg48
g10
(g11
S'\xb7&;\x14\xdd\xd9\xdc?'
tRp807
sg50
I0
sg51
g10
(g11
S'\x04\x80w\xf6{\xd5T@'
tRp808
ssg53
S'938'
p809
sg55
F-69.080699999999993
sg56
g10
(g11
S'b\x10X9\xb4H#\xc0'
tRp810
sg58
(dp811
g38
I0
sg24
g798
sg17
g797
sg19
F0.16600000000000001
sg20
I0
sg21
I0
sg22
I0
sg23
I0
sg16
I0
sg26
g799
sg28
g800
sg31
F0
sg32
g801
sg44
g805
sg34
g802
sg36
g803
sg40
g804
sg15
I0
sg39
I0
sg50
I0
sg42
I0
sg43
I0
sg30
I1
sg46
g806
sg48
g807
sg51
g808
ssg60
I5
sg61
S'1'
sg62
F5.0681399999999996
sg63
S'3809'
p812
sg65
g10
(g11
S'\xf8\x89\x03hJ+\xe9@'
tRp813
sg67
g10
(g11
S'\xf05\x04G\xef\xd6\xe7@'
tRp814
sba(idata_structure
C_TSi
p815
(dp816
g9
g10
(g11
S'\xfc\xa9\xf1\xd2Mb`?'
tRp817
sg13
(dp818
g15
I5
sg16
I0
sg17
g10
(g11
S'\x00\x00\x00\x00\x00\x00\x00\x00'
tRp819
sg19
F0.36299999999999999
sg20
I0
sg21
I0
sg22
I0
sg23
I0
sg24
g10
(g11
S'\x00\xc6\x8b\xa42*6?'
tRp820
sg26
g10
(g11
S'mJ\xb6\xa7"i`@'
tRp821
sg28
g10
(g11
S'F&\xa5Le@\x99?'
tRp822
sg30
I8
sg31
F0.0017256255392579811
sg32
g10
(g11
S'\xb5c3\xa5\xd9\x12\xd3?'
tRp823
sg34
g1
(g2
(I0
tS'b'
tRp824
(I1
(I1
tg11
I00
S'\xc4\xb2_\xa4-vz@'
tbsg36
g10
(g11
S'z)\xa6\t\xd8I\xf7?'
tRp825
sg38
I1
sg39
I0
sg40
g1
(g2
(I0
tS'b'
tRp826
(I1
(I1
tg11
I00
S'Z\xbc\n\xe6\xb3;1@'
tbsg42
I0
sg43
I0
sg44
g10
(g11
S'\xa1\x04j\\8\xdf\xed?'
tRp827
sg46
g10
(g11
S'r\xc6b\xef\xa1\xf0\xdb@'
tRp828
sg48
g10
(g11
S'\xcb\x86\x96C\x10\xed\xe0?'
tRp829
sg50
I0
sg51
g10
(g11
S'\x91Bq3\xb2\xfc[@'
tRp830
ssg53
S'11'
p831
sg55
F-69.026700000000005
sg56
g10
(g11
S'T\xe3\xa5\x9b\xc4\xe0$\xc0'
tRp832
sg58
(dp833
g38
I1
sg24
g820
sg17
g819
sg19
F0.36299999999999999
sg20
I0
sg21
I0
sg22
I0
sg23
I0
sg16
I0
sg26
g821
sg28
g822
sg31
F0.0017256255392579811
sg32
g823
sg44
g827
sg34
g824
sg36
g825
sg40
g826
sg15
I5
sg39
I0
sg50
I0
sg42
I0
sg43
I0
sg30
I8
sg46
g828
sg48
g829
sg51
g830
ssg60
I5
sg61
S'1'
sg62
F5.0709900000000001
sg63
S'3810'
p834
sg65
g10
(g11
S'\xf8\x89\x03hJ+\xe9@'
tRp835
sg67
g10
(g11
S'\xf05\x04G\xef\xd6\xe7@'
tRp836
sba(idata_structure
C_TSi
p837
(dp838
g9
g10
(g11
S'\xfc\xa9\xf1\xd2Mb`?'
tRp839
sg13
(dp840
g15
I2
sg16
I0
sg17
g10
(g11
S'\x00\x00\x00\x00\x00\x00\x00\x00'
tRp841
sg19
F0.29299999999999998
sg20
I0
sg21
I0
sg22
I0
sg23
I0
sg24
g10
(g11
S'\x00\x00\x00\x00\x00\x00\x00\x00'
tRp842
sg26
g10
(g11
S'|Jg\xda\xdfkQ@'
tRp843
sg28
g10
(g11
S'#k1\x81\x84\\\x8f?'
tRp844
sg30
I0
sg31
F0
sg32
g10
(g11
S'\xa6\xb1\xd1j\x89\xa5\xe0?'
tRp845
sg34
g1
(g2
(I0
tS'b'
tRp846
(I1
(I1
tg11
I00
S'\xc5\xc0\xa5KX\xe3z@'
tbsg36
g10
(g11
S'\x02<MQ<F\xf0?'
tRp847
sg38
I0
sg39
I0
sg40
g1
(g2
(I0
tS'b'
tRp848
(I1
(I1
tg11
I00
S'IBU\xf1\xebr#@'
tbsg42
I0
sg43
I0
sg44
g10
(g11
S'C\xce\x99\x8cZ\x06\xf3?'
tRp849
sg46
g10
(g11
S'\xc3*3\xac#\xb2\xbb@'
tRp850
sg48
g10
(g11
S'b\x98\xfb6r[\xdf?'
tRp851
sg50
I0
sg51
g10
(g11
S'J:\x94\xa3\x8c\xfcW@'
tRp852
ssg53
S'15'
p853
sg55
F-68.840199999999996
sg56
g10
(g11
S'\xbct\x93\x18\x04v#\xc0'
tRp854
sg58
(dp855
g38
I0
sg24
g842
sg17
g841
sg19
F0.29299999999999998
sg20
I0
sg21
I0
sg22
I0
sg23
I0
sg16
I0
sg26
g843
sg28
g844
sg31
F0
sg32
g845
sg44
g849
sg34
g846
sg36
g847
sg40
g848
sg15
I2
sg39
I0
sg50
I0
sg42
I0
sg43
I0
sg30
I0
sg46
g850
sg48
g851
sg51
g852
ssg60
I5
sg61
S'1'
sg62
F5.0659200000000002
sg63
S'3812'
p856
sg65
g10
(g11
S'\xf8\x89\x03hJ+\xe9@'
tRp857
sg67
g10
(g11
S'\xf05\x04G\xef\xd6\xe7@'
tRp858
sba(idata_structure
C_TSi
p859
(dp860
g9
g10
(g11
S'\xfc\xa9\xf1\xd2Mb`?'
tRp861
sg13
(dp862
g15
I3
sg16
I0
sg17
g10
(g11
S'\x00\x00\x00\x00\x00\x00\x00\x00'
tRp863
sg19
F0.27800000000000002
sg20
I0
sg21
I0
sg22
I0
sg23
I0
sg24
g10
(g11
S'\x00\x00\x00\x00\x00\x00\x00\x00'
tRp864
sg26
g10
(g11
S'\xfb\x0c\x04\x89?\xa0G@'
tRp865
sg28
g10
(g11
S'\x88\x04\x15A;\x15\x87?'
tRp866
sg30
I1
sg31
F0
sg32
g10
(g11
S'\t~/\x1d @\xe4?'
tRp867
sg34
g1
(g2
(I0
tS'b'
tRp868
(I1
(I1
tg11
I00
S'i\x88\xffN%\xf4\x81@'
tbsg36
g10
(g11
S'\x0b\n\x08 \xf8V\xfd?'
tRp869
sg38
I0
sg39
I1
sg40
g1
(g2
(I0
tS'b'
tRp870
(I1
(I1
tg11
I00
S'\xbd\xc0\xfdw\x1ec\x1f@'
tbsg42
I0
sg43
I0
sg44
g10
(g11
S'\x91\x1eb\x8c;\x05\xf5?'
tRp871
sg46
g10
(g11
S'\xe1\x0e\x9b\xa8u`\xa8@'
tRp872
sg48
g10
(g11
S'\xcd\xc4\xce\x9e\xc3\xa9\xdf?'
tRp873
sg50
I0
sg51
g10
(g11
S'o\x1f\x0fjA\xcbV@'
tRp874
ssg53
S'18'
p875
sg55
F-68.883200000000002
sg56
g10
(g11
S'/\xdd$\x06\x81\xd5"\xc0'
tRp876
sg58
(dp877
g38
I0
sg24
g864
sg17
g863
sg19
F0.27800000000000002
sg20
I0
sg21
I0
sg22
I0
sg23
I0
sg16
I0
sg26
g865
sg28
g866
sg31
F0
sg32
g867
sg44
g871
sg34
g868
sg36
g869
sg40
g870
sg15
I3
sg39
I1
sg50
I0
sg42
I0
sg43
I0
sg30
I1
sg46
g872
sg48
g873
sg51
g874
ssg60
I5
sg61
S'1'
sg62
F5.0642699999999996
sg63
S'3812'
p878
sg65
g10
(g11
S'\xf8\x89\x03hJ+\xe9@'
tRp879
sg67
g10
(g11
S'Vb\x9e\x95\xef\xd6\xe7@'
tRp880
sba(idata_structure
C_TSi
p881
(dp882
g9
g10
(g11
S'\xfc\xa9\xf1\xd2Mb`?'
tRp883
sg13
(dp884
g15
I0
sg16
I0
sg17
g10
(g11
S'\x00\x00\x00\x00\x00\x00\x00\x00'
tRp885
sg19
F0.187
sg20
I0
sg21
I0
sg22
I0
sg23
I0
sg24
g10
(g11
S'\x00\x00\x00\x00\x00\x00\x00\x00'
tRp886
sg26
g10
(g11
S'\x19\xcfW\x11\xa4\xfbE@'
tRp887
sg28
g10
(g11
S'\x1d\x80,\xc7P\x15\x80?'
tRp888
sg30
I0
sg31
F0
sg32
g10
(g11
S'\x97v]c\xe2F\xea?'
tRp889
sg34
g1
(g2
(I0
tS'b'
tRp890
(I1
(I1
tg11
I00
S'\x03\xe3\xf0\x12\xe2\xfcw@'
tbsg36
g10
(g11
S'NDl*\xa2M\xf6?'
tRp891
sg38
I0
sg39
I0
sg40
g1
(g2
(I0
tS'b'
tRp892
(I1
(I1
tg11
I00
S'\x16r\x9f\xc1K\xad\x17@'
tbsg42
I0
sg43
I0
sg44
g10
(g11
S'a\xdb\xee\x9c(\xb5\xf8?'
tRp893
sg46
g10
(g11
S'\xa2\xf3\x13\xf0\x16\xcc\xa5@'
tRp894
sg48
g10
(g11
S')Y\xceJ\x99\xdd\xde?'
tRp895
sg50
I0
sg51
g10
(g11
S'\xc9\\\x8d\xe5\xf6:V@'
tRp896
ssg53
S'7'
sg55
F-68.8035
sg56
g10
(g11
S'\xcd\xcc\xcc\xcc\xcc\x8c#\xc0'
tRp897
sg58
(dp898
g38
I0
sg24
g886
sg17
g885
sg19
F0.187
sg20
I0
sg21
I0
sg22
I0
sg23
I0
sg16
I0
sg26
g887
sg28
g888
sg31
F0
sg32
g889
sg44
g893
sg34
g890
sg36
g891
sg40
g892
sg15
I0
sg39
I0
sg50
I0
sg42
I0
sg43
I0
sg30
I0
sg46
g894
sg48
g895
sg51
g896
ssg60
I5
sg61
S'1'
sg62
F5.0608199999999997
sg63
S'3813'
p899
sg65
g10
(g11
S'\xf8\x89\x03hJ+\xe9@'
tRp900
sg67
g10
(g11
S'\xf05\x04G\xef\xd6\xe7@'
tRp901
sba(idata_structure
C_TSi
p902
(dp903
g9
g10
(g11
S'\xfc\xa9\xf1\xd2Mbp?'
tRp904
sg13
(dp905
g15
I1
sg16
I0
sg17
g10
(g11
S'\x00\x00\x00\x00\x00\x00\x00\x00'
tRp906
sg19
F0.14999999999999999
sg20
I0
sg21
I0
sg22
I0
sg23
I0
sg24
g10
(g11
S'\x00\x00\x00\x00\x00\x00\x00\x00'
tRp907
sg26
g10
(g11
S'\xf6\xfd\xfd\x83\x03\x9fI@'
tRp908
sg28
g10
(g11
S'\xa0\xee/\xe4\x0e[\x97?'
tRp909
sg30
I0
sg31
F0.0019665683382497543
sg32
g10
(g11
S'\x80\x1fl\x1d\xe8\x99\xf6?'
tRp910
sg34
g1
(g2
(I0
tS'b'
tRp911
(I1
(I1
tg11
I00
S'\x88V#\xaf\xcc\xb5y@'
tbsg36
g10
(g11
S'u\xcb\x9b\xe7\x9a`\xf5?'
tRp912
sg38
I0
sg39
I0
sg40
g1
(g2
(I0
tS'b'
tRp913
(I1
(I1
tg11
I00
S'D\xb0\xb8\xfd\x1f\x99\x0b@'
tbsg42
I0
sg43
I0
sg44
g10
(g11
S'\x15\xfa\xfe1\x07N\x00@'
tRp914
sg46
g10
(g11
S'\xdc\xbf\xc5\x1eV\xb1\xae@'
tRp915
sg48
g10
(g11
S'\xb4\x10\x03j\xc6:\xdd?'
tRp916
sg50
I0
sg51
g10
(g11
S'}\xb9yh0\xb4S@'
tRp917
ssg53
S'29'
p918
sg55
F-69.271500000000003
sg56
g10
(g11
S'b\x10X9\xb4\x08!\xc0'
tRp919
sg58
(dp920
g38
I0
sg24
g907
sg17
g906
sg19
F0.14999999999999999
sg20
I0
sg21
I0
sg22
I0
sg23
I0
sg16
I0
sg26
g908
sg28
g909
sg31
F0.0019665683382497543
sg32
g910
sg44
g914
sg34
g911
sg36
g912
sg40
g913
sg15
I1
sg39
I0
sg50
I0
sg42
I0
sg43
I0
sg30
I0
sg46
g915
sg48
g916
sg51
g917
ssg60
I5
sg61
S'1'
sg62
F5.0781299999999998
sg63
S'3927'
p921
sg65
g10
(g11
S'\xf8\x89\x03hJ+\xe9@'
tRp922
sg67
g10
(g11
S'\x1b\xa1\x9f\xa9\x0e\xd7\xe7@'
tRp923
sba(idata_structure
C_TSi
p924
(dp925
g9
g10
(g11
S'{\x14\xaeG\xe1zt?'
tRp926
sg13
(dp927
g15
I1
sg16
I0
sg17
g10
(g11
S'\x00\x00\x00\x00\x00\x00\x00\x00'
tRp928
sg19
F0.19500000000000001
sg20
I0
sg21
I0
sg22
I0
sg23
I0
sg24
g10
(g11
S'\x00\x00\x00\x00\x00\x00\x00\x00'
tRp929
sg26
g10
(g11
S'\xaa\xf1\x14:E\xf1=@'
tRp930
sg28
g10
(g11
S'\x9e\xbd\xfd\xf0\xc3\x02\x91?'
tRp931
sg30
I0
sg31
F0
sg32
g10
(g11
S'\x93\xa53%\xfc~\xf7?'
tRp932
sg34
g1
(g2
(I0
tS'b'
tRp933
(I1
(I1
tg11
I00
S'\x86\xcd%\xee\xd6\xa2v@'
tbsg36
g10
(g11
S'\x0b\x17\xe1\x90\xac)\xec?'
tRp934
sg38
I0
sg39
I0
sg40
g1
(g2
(I0
tS'b'
tRp935
(I1
(I1
tg11
I00
S'\x1ev\xbf\xc8\x90\xad\t@'
tbsg42
I0
sg43
I0
sg44
g10
(g11
S'3\x84Kf\x04\xcd\x00@'
tRp936
sg46
g10
(g11
S'\xdf<\xbd\xe2\xc3\x96\x93@'
tRp937
sg48
g10
(g11
S'\x1cA\x0en\xd1\x01\xdd?'
tRp938
sg50
I0
sg51
g10
(g11
S'\xe2F\xfa\xf1u\x9cT@'
tRp939
ssg53
S'46'
p940
sg55
F-69.230800000000002
sg56
g10
(g11
S'\xc5 \xb0rh\xd1 \xc0'
tRp941
sg58
(dp942
g38
I0
sg24
g929
sg17
g928
sg19
F0.19500000000000001
sg20
I0
sg21
I0
sg22
I0
sg23
I0
sg16
I0
sg26
g930
sg28
g931
sg31
F0
sg32
g932
sg44
g936
sg34
g933
sg36
g934
sg40
g935
sg15
I1
sg39
I0
sg50
I0
sg42
I0
sg43
I0
sg30
I0
sg46
g937
sg48
g938
sg51
g939
ssg60
I5
sg61
S'1'
sg62
F5.0754000000000001
sg63
S'3927'
p943
sg65
g10
(g11
S'\xf8\x89\x03hJ+\xe9@'
tRp944
sg67
g10
(g11
S'\x1b\xa1\x9f\xa9\x0e\xd7\xe7@'
tRp945
sba(idata_structure
C_TSi
p946
(dp947
g9
g10
(g11
S'\xfa~j\xbct\x93\x98?'
tRp948
sg13
(dp949
g15
I0
sg16
I0
sg17
g10
(g11
S'\x00\x00\x00\x00\x00\x00\x00\x00'
tRp950
sg19
F0.249
sg20
I0
sg21
I0
sg22
I0
sg23
I0
sg24
g10
(g11
S'\x00\x00\x00\x00\x00\x00\x00\x00'
tRp951
sg26
g10
(g11
S'\xbe\xa0\x0bY\x15\xfb\x13@'
tRp952
sg28
g10
(g11
S'\xd6\xff\xaa\xb6\xa04\x91?'
tRp953
sg30
I0
sg31
F0.00084459459459459464
sg32
g10
(g11
S'\xcb\xa8c\xf6O\xcd\xf5?'
tRp954
sg34
g1
(g2
(I0
tS'b'
tRp955
(I1
(I1
tg11
I00
S'b)\xd1 KTu@'
tbsg36
g10
(g11
S'U\xb7F-Hn\xf2?'
tRp956
sg38
I0
sg39
I0
sg40
g1
(g2
(I0
tS'b'
tRp957
(I1
(I1
tg11
I00
S'\xc1#\xfb\x19\x9bV\x08@'
tbsg42
I0
sg43
I0
sg44
g10
(g11
S'\xdf\xc5A\xfc\xc3i\x00@'
tRp958
sg46
g10
(g11
S'\x02\xeb\x98\xb3\x0e\x16B@'
tRp959
sg48
g10
(g11
S'Z\xbf\xef\x91MW\xdd?'
tRp960
sg50
I0
sg51
g10
(g11
S'\x0b\x11\xf7V\xfa\x08U@'
tRp961
ssg53
S'58'
p962
sg55
F-69.253100000000003
sg56
g10
(g11
S'\xe0O\x8d\x97n\x92 \xc0'
tRp963
sg58
(dp964
g38
I0
sg24
g951
sg17
g950
sg19
F0.249
sg20
I0
sg21
I0
sg22
I0
sg23
I0
sg16
I0
sg26
g952
sg28
g953
sg31
F0.00084459459459459464
sg32
g954
sg44
g958
sg34
g955
sg36
g956
sg40
g957
sg15
I0
sg39
I0
sg50
I0
sg42
I0
sg43
I0
sg30
I0
sg46
g959
sg48
g960
sg51
g961
ssg60
I5
sg61
S'1'
sg62
F5.0763199999999999
sg63
S'3927'
p965
sg65
g10
(g11
S'\xf8\x89\x03hJ+\xe9@'
tRp966
sg67
g10
(g11
S'\xf05\x04G\xef\xd6\xe7@'
tRp967
sba(idata_structure
C_TSi
p968
(dp969
g9
g10
(g11
S'\xfa~j\xbct\x93h?'
tRp970
sg13
(dp971
g15
I0
sg16
I0
sg17
g10
(g11
S'\x00\x00\x00\x00\x00\x00\x00\x00'
tRp972
sg19
F0.10100000000000001
sg20
I0
sg21
I0
sg22
I0
sg23
I0
sg24
g10
(g11
S'\x00\x00\x00\x00\x00\x00\x00\x00'
tRp973
sg26
g10
(g11
S'!zd\xe6,\x99>@'
tRp974
sg28
g10
(g11
S'\xf4\xdd\xec\x01!:\x84?'
tRp975
sg30
I0
sg31
F0
sg32
g10
(g11
S'\xd0>\xb0\xf3<\x7f\xf6?'
tRp976
sg34
g1
(g2
(I0
tS'b'
tRp977
(I1
(I1
tg11
I00
S'\xdaia\xe4\xfe\xc6x@'
tbsg36
g10
(g11
S'pU\xcc\xac*?\xf1?'
tRp978
sg38
I0
sg39
I0
sg40
g1
(g2
(I0
tS'b'
tRp979
(I1
(I1
tg11
I00
S'W\xbf\xa1e\x03\xea\x08@'
tbsg42
I0
sg43
I0
sg44
g10
(g11
S'^\x96\xa8\xb1\xbbW\x00@'
tRp980
sg46
g10
(g11
S'\xaeYq\x12\x0b(\x93@'
tRp981
sg48
g10
(g11
S'\x8b\x97\xb1\x10\x99{\xdc?'
tRp982
sg50
I0
sg51
g10
(g11
S'\xcf\xb9)\x163hT@'
tRp983
ssg53
S'26'
p984
sg55
F-69.2136
sg56
g10
(g11
S'D\x8bl\xe7\xfb\xe9!\xc0'
tRp985
sg58
(dp986
g38
I0
sg24
g973
sg17
g972
sg19
F0.10100000000000001
sg20
I0
sg21
I0
sg22
I0
sg23
I0
sg16
I0
sg26
g974
sg28
g975
sg31
F0
sg32
g976
sg44
g980
sg34
g977
sg36
g978
sg40
g979
sg15
I0
sg39
I0
sg50
I0
sg42
I0
sg43
I0
sg30
I0
sg46
g981
sg48
g982
sg51
g983
ssg60
I5
sg61
S'1'
sg62
F5.0754400000000004
sg63
S'3928'
p987
sg65
g10
(g11
S'\xf8\x89\x03hJ+\xe9@'
tRp988
sg67
g10
(g11
S'\x1b\xa1\x9f\xa9\x0e\xd7\xe7@'
tRp989
sba(idata_structure
C_TSi
p990
(dp991
g9
g10
(g11
S'{\x14\xaeG\xe1z\x84?'
tRp992
sg13
(dp993
g15
I0
sg16
I0
sg17
g10
(g11
S'\x00\x00\x00\x00\x00\x00\x00\x00'
tRp994
sg19
F0.441
sg20
I0
sg21
I0
sg22
I0
sg23
I0
sg24
g10
(g11
S'\x00\x00\x00\x00\x00\x00\x00\x00'
tRp995
sg26
g10
(g11
S'w^/.\xbe\xdb0@'
tRp996
sg28
g10
(g11
S'\xa0\x98/\x04\t\xfc\x95?'
tRp997
sg30
I0
sg31
F0
sg32
g10
(g11
S'y\xca\xca\x1d8\xa8\xf4?'
tRp998
sg34
g1
(g2
(I0
tS'b'
tRp999
(I1
(I1
tg11
I00
S'\xd0\r\xd6d!Sz@'
tbsg36
g10
(g11
S'q\xd7zu\xd7{\xf3?'
tRp1000
sg38
I0
sg39
I0
sg40
g1
(g2
(I0
tS'b'
tRp1001
(I1
(I1
tg11
I00
S'\xd4r\x8c/\xa68\x08@'
tbsg42
I0
sg43
I0
sg44
g10
(g11
S'\xa1\x1c\xb5\xcb\x92l\xff?'
tRp1002
sg46
g10
(g11
S'>\xe1\xc6 \x19\xf8z@'
tRp1003
sg48
g10
(g11
S'\xe6\xea\xb1\xc1\xea\x04\xde?'
tRp1004
sg50
I0
sg51
g10
(g11
S'kni\xaa\x9d\x84S@'
tRp1005
ssg53
S'107'
p1006
sg55
F-69.127399999999994
sg56
g10
(g11
S'\xcf\xf7S\xe3\xa5\x1b\x1e\xc0'
tRp1007
sg58
(dp1008
g38
I0
sg24
g995
sg17
g994
sg19
F0.441
sg20
I0
sg21
I0
sg22
I0
sg23
I0
sg16
I0
sg26
g996
sg28
g997
sg31
F0
sg32
g998
sg44
g1002
sg34
g999
sg36
g1000
sg40
g1001
sg15
I0
sg39
I0
sg50
I0
sg42
I0
sg43
I0
sg30
I0
sg46
g1003
sg48
g1004
sg51
g1005
ssg60
I5
sg61
S'1'
sg62
F5.0736999999999997
sg63
S'3929'
p1009
sg65
g10
(g11
S'\xf8\x89\x03hJ+\xe9@'
tRp1010
sg67
g10
(g11
S'\x1b\xa1\x9f\xa9\x0e\xd7\xe7@'
tRp1011
sba(idata_structure
C_TSi
p1012
(dp1013
g9
g10
(g11
S'{\x14\xaeG\xe1zt?'
tRp1014
sg13
(dp1015
g15
I0
sg16
I0
sg17
g10
(g11
S'\x00\x00\x00\x00\x00\x00\x00\x00'
tRp1016
sg19
F0.27300000000000002
sg20
I0
sg21
I0
sg22
I0
sg23
I0
sg24
g10
(g11
S'\x00\x00\x00\x00\x00\x00\x00\x00'
tRp1017
sg26
g10
(g11
S'{b\xd6\xc7\xe4\x837@'
tRp1018
sg28
g10
(g11
S'\xe5\x02\x9f\xbf\xa5\xb5\x8e?'
tRp1019
sg30
I0
sg31
F0
sg32
g10
(g11
S'[8\r\x98\xf4\xd2\xf5?'
tRp1020
sg34
g1
(g2
(I0
tS'b'
tRp1021
(I1
(I1
tg11
I00
S'\x08\xf8L\xdb\xe2\x81\x80@'
tbsg36
g10
(g11
S'\xa2\xd8<\x8b\xd7n\xf2?'
tRp1022
sg38
I0
sg39
I0
sg40
g1
(g2
(I0
tS'b'
tRp1023
(I1
(I1
tg11
I00
S'\x8c\x06^\xf7\n4\n@'
tbsg42
I0
sg43
I0
sg44
g10
(g11
S'\x14\xf3\xb8\x8c\xd1\x14\x00@'
tRp1024
sg46
g10
(g11
S'-{\x87e\xbf\x01\x87@'
tRp1025
sg48
g10
(g11
S'\t\r\xd15\xca\xe9\xdd?'
tRp1026
sg50
I0
sg51
g10
(g11
S'\xdb\x90\xdb0s~T@'
tRp1027
ssg53
S'64'
p1028
sg55
F-68.8767
sg56
g10
(g11
S'\x81\x95C\x8bl\xe7\x1f\xc0'
tRp1029
sg58
(dp1030
g38
I0
sg24
g1017
sg17
g1016
sg19
F0.27300000000000002
sg20
I0
sg21
I0
sg22
I0
sg23
I0
sg16
I0
sg26
g1018
sg28
g1019
sg31
F0
sg32
g1020
sg44
g1024
sg34
g1021
sg36
g1022
sg40
g1023
sg15
I0
sg39
I0
sg50
I0
sg42
I0
sg43
I0
sg30
I0
sg46
g1025
sg48
g1026
sg51
g1027
ssg60
I5
sg61
S'1'
sg62
F5.0764100000000001
sg63
S'3933'
p1031
sg65
g10
(g11
S'\xf8\x89\x03hJ+\xe9@'
tRp1032
sg67
g10
(g11
S'\x1b\xa1\x9f\xa9\x0e\xd7\xe7@'
tRp1033
sba(idata_structure
C_TSi
p1034
(dp1035
g9
g10
(g11
S'{\x14\xaeG\xe1zt?'
tRp1036
sg13
(dp1037
g15
I0
sg16
I0
sg17
g10
(g11
S'\x00\x00\x00\x00\x00\x00\x00\x00'
tRp1038
sg19
F0.20100000000000001
sg20
I0
sg21
I0
sg22
I0
sg23
I0
sg24
g10
(g11
S'\x00\x00\x00\x00\x00\x00\x00\x00'
tRp1039
sg26
g10
(g11
S'@\x1e\xfcP\xb9\xeeA@'
tRp1040
sg28
g10
(g11
S'\xe5\xf67\r\xc3L\x93?'
tRp1041
sg30
I0
sg31
F0
sg32
g10
(g11
S'\xed\xaa\xf2\xfb\x07x\xf6?'
tRp1042
sg34
g1
(g2
(I0
tS'b'
tRp1043
(I1
(I1
tg11
I00
S'\xd8\xc8\xc1\x17\xac\x16p@'
tbsg36
g10
(g11
S'\xb0)7ME2\xf7?'
tRp1044
sg38
I0
sg39
I0
sg40
g1
(g2
(I0
tS'b'
tRp1045
(I1
(I1
tg11
I00
S'\xffX\x1d\x85\xff\x0f\x0c@'
tbsg42
I0
sg43
I0
sg44
g10
(g11
S'\x97\xe8\xf6\xb1c\xa3\x00@'
tRp1046
sg46
g10
(g11
S'-\x07.\x1aGJ\x9c@'
tRp1047
sg48
g10
(g11
S'\xe8\xed\x7f\xa1\x0b}\xdd?'
tRp1048
sg50
I0
sg51
g10
(g11
S'Ce\ne\xddET@'
tRp1049
ssg53
S'1615'
p1050
sg55
F-69.364500000000007
sg56
g10
(g11
S'\x1b/\xdd$\x06\x81 \xc0'
tRp1051
sg58
(dp1052
g38
I0
sg24
g1039
sg17
g1038
sg19
F0.20100000000000001
sg20
I0
sg21
I0
sg22
I0
sg23
I0
sg16
I0
sg26
g1040
sg28
g1041
sg31
F0
sg32
g1042
sg44
g1046
sg34
g1043
sg36
g1044
sg40
g1045
sg15
I0
sg39
I0
sg50
I0
sg42
I0
sg43
I0
sg30
I0
sg46
g1047
sg48
g1048
sg51
g1049
ssg60
I5
sg61
S'1'
sg62
F5.0912300000000004
sg63
S'4046'
p1053
sg65
g10
(g11
S'hur\x06\xab*\xe9@'
tRp1054
sg67
g10
(g11
S'\xd2\xe1!\x8cM\xde\xe7@'
tRp1055
sba(idata_structure
C_TSi
p1056
(dp1057
g9
g10
(g11
S'\xfc\xa9\xf1\xd2Mbp?'
tRp1058
sg13
(dp1059
g15
I1
sg16
I0
sg17
g10
(g11
S'\x00\x00\x00\x00\x00\x00\x00\x00'
tRp1060
sg19
F0.16700000000000001
sg20
I0
sg21
I0
sg22
I0
sg23
I0
sg24
g10
(g11
S'\x00\x00\x00\x00\x00\x00\x00\x00'
tRp1061
sg26
g10
(g11
S'fdIZ*iH@'
tRp1062
sg28
g10
(g11
S'k\x91)~\xd4\x1c\x99?'
tRp1063
sg30
I0
sg31
F0
sg32
g10
(g11
S'\x88\xb8dB\x1e\xb1\xf4?'
tRp1064
sg34
g1
(g2
(I0
tS'b'
tRp1065
(I1
(I1
tg11
I00
S'\xcf\xcf\xe7\xdeJuz@'
tbsg36
g10
(g11
S'\xf1\xfdF:J%\xef?'
tRp1066
sg38
I0
sg39
I0
sg40
g1
(g2
(I0
tS'b'
tRp1067
(I1
(I1
tg11
I00
S'\xfb+\x8d\xf1{"\x0b@'
tbsg42
I0
sg43
I0
sg44
g10
(g11
S'\xee\xee\t\xc3\x9e\xc2\xff?'
tRp1068
sg46
g10
(g11
S'\xb6\xe3+\xaa\xa7\xf6\xaa@'
tRp1069
sg48
g10
(g11
S'G;+?~J\xdd?'
tRp1070
sg50
I0
sg51
g10
(g11
S'/[]\xf9\x16kT@'
tRp1071
ssg53
S'1441'
p1072
sg55
F-69.341800000000006
sg56
g10
(g11
S'\xdb\xf9~j\xbct \xc0'
tRp1073
sg58
(dp1074
g38
I0
sg24
g1061
sg17
g1060
sg19
F0.16700000000000001
sg20
I0
sg21
I0
sg22
I0
sg23
I0
sg16
I0
sg26
g1062
sg28
g1063
sg31
F0
sg32
g1064
sg44
g1068
sg34
g1065
sg36
g1066
sg40
g1067
sg15
I1
sg39
I0
sg50
I0
sg42
I0
sg43
I0
sg30
I0
sg46
g1069
sg48
g1070
sg51
g1071
ssg60
I5
sg61
S'1'
sg62
F5.0930200000000001
sg63
S'4047'
p1075
sg65
g10
(g11
S'hur\x06\xab*\xe9@'
tRp1076
sg67
g10
(g11
S'\x95)\xe6 .\xd9\xe7@'
tRp1077
sba(idata_structure
C_TSi
p1078
(dp1079
g9
g10
(g11
S'\xfa~j\xbct\x93\x88?'
tRp1080
sg13
(dp1081
g15
I0
sg16
I0
sg17
g10
(g11
S'\x00\x00\x00\x00\x00\x00\x00\x00'
tRp1082
sg19
F0.127
sg20
I0
sg21
I0
sg22
I0
sg23
I0
sg24
g10
(g11
S'\x00\x00\x00\x00\x00\x00\x00\x00'
tRp1083
sg26
g10
(g11
S'\x9d\xf0\x9a\xd5[\xd9\x11@'
tRp1084
sg28
g10
(g11
S'V\x1e\x9b3:m\x80?'
tRp1085
sg30
I0
sg31
F0
sg32
g10
(g11
S'S\x97\xd0\xaa\xe8\x94\xf4?'
tRp1086
sg34
g1
(g2
(I0
tS'b'
tRp1087
(I1
(I1
tg11
I00
S'\xd3[Kf\xcb\x17\x80@'
tbsg36
g10
(g11
S'\xe37\x9b\xc3\xb3\xf9\xf7?'
tRp1088
sg38
I0
sg39
I0
sg40
g1
(g2
(I0
tS'b'
tRp1089
(I1
(I1
tg11
I00
S'4\x19\x03\x92\xaal\xf4?'
tbsg42
I0
sg43
I0
sg44
g10
(g11
S"\x9f\xfa\xa5\x1b\xe3'\xff?"
tRp1090
sg46
g10
(g11
S'\x96\xfa\xc5\x16\xd5x>@'
tRp1091
sg48
g10
(g11
S'\xeaE\x9fh\x98\xc2\xdd?'
tRp1092
sg50
I0
sg51
g10
(g11
S'\xacX\x8b\x90\x8c\x1bU@'
tRp1093
ssg53
S'28'
p1094
sg55
F-69.251400000000004
sg56
g10
(g11
S'\xb0rh\x91\xed\xfc\x1d\xc0'
tRp1095
sg58
(dp1096
g38
I0
sg24
g1083
sg17
g1082
sg19
F0.127
sg20
I0
sg21
I0
sg22
I0
sg23
I0
sg16
I0
sg26
g1084
sg28
g1085
sg31
F0
sg32
g1086
sg44
g1090
sg34
g1087
sg36
g1088
sg40
g1089
sg15
I0
sg39
I0
sg50
I0
sg42
I0
sg43
I0
sg30
I0
sg46
g1091
sg48
g1092
sg51
g1093
ssg60
I5
sg61
S'1'
sg62
F5.0848399999999998
sg63
S'4048'
p1097
sg65
g10
(g11
S'\xf8\x89\x03hJ+\xe9@'
tRp1098
sg67
g10
(g11
S'Vb\x9e\x95\xef\xd6\xe7@'
tRp1099
sba(idata_structure
C_TSi
p1100
(dp1101
g9
g10
(g11
S'\xfc\xa9\xf1\xd2Mb`?'
tRp1102
sg13
(dp1103
g15
I1
sg16
I0
sg17
g10
(g11
S'\x00\x00\x00\x00\x00\x00\x00\x00'
tRp1104
sg19
F0.20999999999999999
sg20
I0
sg21
I0
sg22
I0
sg23
I0
sg24
g10
(g11
S'\x00\x00\x00\x00\x00\x00\x00\x00'
tRp1105
sg26
g10
(g11
S'\rEI\x15\x18\x82W@'
tRp1106
sg28
g10
(g11
S'\xc2f_S\x8c\xfe\x95?'
tRp1107
sg30
I0
sg31
F0
sg32
g10
(g11
S'\xa1\xee^\x1a\xc4\x91\xeb?'
tRp1108
sg34
g1
(g2
(I0
tS'b'
tRp1109
(I1
(I1
tg11
I00
S'\xa9\x08>\xf3(\x90z@'
tbsg36
g10
(g11
S'\xe7\xcd\xe4tD#\xf6?'
tRp1110
sg38
I0
sg39
I0
sg40
g1
(g2
(I0
tS'b'
tRp1111
(I1
(I1
tg11
I00
S'\x1d7U\x95\x92\xda\x1e@'
tbsg42
I0
sg43
I0
sg44
g10
(g11
S'\xd9M\xf63\x16\x85\xf8?'
tRp1112
sg46
g10
(g11
S'\x9f\xa4\x0e\xf3\x80\xab\xc9@'
tRp1113
sg48
g10
(g11
S'Y\xb7<\t\xadH\xde?'
tRp1114
sg50
I0
sg51
g10
(g11
S'hx\xd78$/V@'
tRp1115
ssg53
S'6'
sg55
F-69.253399999999999
sg56
g10
(g11
S'\xaa\xf1\xd2MbP#\xc0'
tRp1116
sg58
(dp1117
g38
I0
sg24
g1105
sg17
g1104
sg19
F0.20999999999999999
sg20
I0
sg21
I0
sg22
I0
sg23
I0
sg16
I0
sg26
g1106
sg28
g1107
sg31
F0
sg32
g1108
sg44
g1112
sg34
g1109
sg36
g1110
sg40
g1111
sg15
I1
sg39
I0
sg50
I0
sg42
I0
sg43
I0
sg30
I0
sg46
g1113
sg48
g1114
sg51
g1115
ssg60
I5
sg61
S'1'
sg62
F5.0857900000000003
sg63
S'4048'
p1118
sg65
g10
(g11
S'\xf8\x89\x03hJ+\xe9@'
tRp1119
sg67
g10
(g11
S'\xf05\x04G\xef\xd6\xe7@'
tRp1120
sba(idata_structure
C_TSi
p1121
(dp1122
g9
g10
(g11
S'\xfc\xa9\xf1\xd2Mbp?'
tRp1123
sg13
(dp1124
g15
I0
sg16
I0
sg17
g10
(g11
S'\x00\x00\x00\x00\x00\x00\x00\x00'
tRp1125
sg19
F0.13900000000000001
sg20
I0
sg21
I0
sg22
I0
sg23
I0
sg24
g10
(g11
S'\x00\x00\x00\x00\x00\x00\x00\x00'
tRp1126
sg26
g10
(g11
S'\x93\xf3}\x18Pe=@'
tRp1127
sg28
g10
(g11
S'\xd0\x9c@r\xa4\xe1\x8b?'
tRp1128
sg30
I0
sg31
F0
sg32
g10
(g11
S'\x0cJH\x92\x85\xcf\xf7?'
tRp1129
sg34
g1
(g2
(I0
tS'b'
tRp1130
(I1
(I1
tg11
I00
S'\x1e/\xc5o\xcb\xc8~@'
tbsg36
g10
(g11
S'\n\x9eT^]\x1c\xf7?'
tRp1131
sg38
I0
sg39
I0
sg40
g1
(g2
(I0
tS'b'
tRp1132
(I1
(I1
tg11
I00
S"[m\xdeE\x14'\x02@"
tbsg42
I0
sg43
I0
sg44
g10
(g11
S'\x99Ai\x7f\xfd\x08\x01@'
tRp1133
sg46
g10
(g11
S'\xe2\x01\xf7}\xf4\x17\x91@'
tRp1134
sg48
g10
(g11
S'\x8e\xa1\xf6\x14\xff.\xde?'
tRp1135
sg50
I0
sg51
g10
(g11
S'\xddF]O\xc7YT@'
tRp1136
ssg53
S'1534'
p1137
sg55
F-69.193200000000004
sg56
g10
(g11
S'\x12\x83\xc0\xca\xa1\x85 \xc0'
tRp1138
sg58
(dp1139
g38
I0
sg24
g1126
sg17
g1125
sg19
F0.13900000000000001
sg20
I0
sg21
I0
sg22
I0
sg23
I0
sg16
I0
sg26
g1127
sg28
g1128
sg31
F0
sg32
g1129
sg44
g1133
sg34
g1130
sg36
g1131
sg40
g1132
sg15
I0
sg39
I0
sg50
I0
sg42
I0
sg43
I0
sg30
I0
sg46
g1134
sg48
g1135
sg51
g1136
ssg60
I5
sg61
S'1'
sg62
F5.0907
sg63
S'4049'
p1140
sg65
g10
(g11
S'\xf8\x89\x03hJ+\xe9@'
tRp1141
sg67
g10
(g11
S'\xd2\xe1!\x8cM\xde\xe7@'
tRp1142
sba(idata_structure
C_TSi
p1143
(dp1144
g9
g10
(g11
S'\xfc\xa9\xf1\xd2Mb\x80?'
tRp1145
sg13
(dp1146
g15
I0
sg16
I0
sg17
g10
(g11
S'\x00\x00\x00\x00\x00\x00\x00\x00'
tRp1147
sg19
F0.16700000000000001
sg20
I0
sg21
I0
sg22
I0
sg23
I0
sg24
g10
(g11
S'\x00\x00\x00\x00\x00\x00\x00\x00'
tRp1148
sg26
g10
(g11
S'\xa86\x81\xc5I5)@'
tRp1149
sg28
g10
(g11
S'\xf2\x83\xbcX\xa6\x0e\x8c?'
tRp1150
sg30
I0
sg31
F0.0026929982046678637
sg32
g10
(g11
S'v\xa7;p\xeb^\xfa?'
tRp1151
sg34
g1
(g2
(I0
tS'b'
tRp1152
(I1
(I1
tg11
I00
S'\nX\xab.Zh\x7f@'
tbsg36
g10
(g11
S'\xf0tb\xd5f\x7f\xfb?'
tRp1153
sg38
I0
sg39
I0
sg40
g1
(g2
(I0
tS'b'
tRp1154
(I1
(I1
tg11
I00
S'\xf9\xb4A\xde\n\xf8\xf9?'
tbsg42
I0
sg43
I0
sg44
g10
(g11
S'\xfa\xf8\x18k\xe0\xee\x01@'
tRp1155
sg46
g10
(g11
S'X{\x9d\x07t\xc1k@'
tRp1156
sg48
g10
(g11
S'\xbe\xe5\x94\xf7\x81\x1d\xde?'
tRp1157
sg50
I0
sg51
g10
(g11
S'\xbe8\xfc\xe8j\x06U@'
tRp1158
ssg53
S'55'
p1159
sg55
F-68.997699999999995
sg56
g10
(g11
S'y\xe9&1\x08,\x1d\xc0'
tRp1160
sg58
(dp1161
g38
I0
sg24
g1148
sg17
g1147
sg19
F0.16700000000000001
sg20
I0
sg21
I0
sg22
I0
sg23
I0
sg16
I0
sg26
g1149
sg28
g1150
sg31
F0.0026929982046678637
sg32
g1151
sg44
g1155
sg34
g1152
sg36
g1153
sg40
g1154
sg15
I0
sg39
I0
sg50
I0
sg42
I0
sg43
I0
sg30
I0
sg46
g1156
sg48
g1157
sg51
g1158
ssg60
I5
sg61
S'1'
sg62
F5.0955599999999999
sg63
S'4052'
p1162
sg65
g10
(g11
S'\xf8\x89\x03hJ+\xe9@'
tRp1163
sg67
g10
(g11
S'\x1b\xa1\x9f\xa9\x0e\xd7\xe7@'
tRp1164
sba(idata_structure
C_TSi
p1165
(dp1166
g9
g10
(g11
S'\x19\x04V\x0e-\xb2\x9d?'
tRp1167
sg13
(dp1168
g15
I0
sg16
I0
sg17
g10
(g11
S'\x00\x00\x00\x00\x00\x00\x00\x00'
tRp1169
sg19
F0.25600000000000001
sg20
I0
sg21
I0
sg22
I0
sg23
I0
sg24
g10
(g11
S'\x00\x00\x00\x00\x00\x00\x00\x00'
tRp1170
sg26
g10
(g11
S'\xd709S\xfd0\xfa?'
tRp1171
sg28
g10
(g11
S'\xbfH\xd4\xff%\x16\x86?'
tRp1172
sg30
I0
sg31
F0.0017256255392579811
sg32
g10
(g11
S'\xd2n$zUE\xf8?'
tRp1173
sg34
g1
(g2
(I0
tS'b'
tRp1174
(I1
(I1
tg11
I00
S'\x8a\x96\x9c\x8e.\x01~@'
tbsg36
g10
(g11
S'\xf6\x08U\xa8\xd5\xce\xf9?'
tRp1175
sg38
I0
sg39
I0
sg40
g1
(g2
(I0
tS'b'
tRp1176
(I1
(I1
tg11
I00
S'\xcc4\xb2\xe0\xb5\xae\xf6?'
tbsg42
I0
sg43
I0
sg44
g10
(g11
S'\xed>\xc8\x9c\x00\x19\x01@'
tRp1177
sg46
g10
(g11
S'\xf2\xe7m\xa0\xd1\xb4\x11@'
tRp1178
sg48
g10
(g11
S'\x05\t\xad\xc3\x87P\xdd?'
tRp1179
sg50
I0
sg51
g10
(g11
S'\\\\\x84%\xf8\xeaT@'
tRp1180
ssg53
S'53'
p1181
sg55
F-68.956800000000001
sg56
g10
(g11
S'\xcb\xa1E\xb6\xf3}\x1d\xc0'
tRp1182
sg58
(dp1183
g38
I0
sg24
g1170
sg17
g1169
sg19
F0.25600000000000001
sg20
I0
sg21
I0
sg22
I0
sg23
I0
sg16
I0
sg26
g1171
sg28
g1172
sg31
F0.0017256255392579811
sg32
g1173
sg44
g1177
sg34
g1174
sg36
g1175
sg40
g1176
sg15
I0
sg39
I0
sg50
I0
sg42
I0
sg43
I0
sg30
I0
sg46
g1178
sg48
g1179
sg51
g1180
ssg60
I5
sg61
S'1'
sg62
F5.09375
sg63
S'4053'
p1184
sg65
g10
(g11
S'\xf8\x89\x03hJ+\xe9@'
tRp1185
sg67
g10
(g11
S'\x95)\xe6 .\xd9\xe7@'
tRp1186
sba(idata_structure
C_TSi
p1187
(dp1188
g9
g10
(g11
S'\xfc\xa9\xf1\xd2Mb`?'
tRp1189
sg13
(dp1190
g15
I0
sg16
I0
sg17
g10
(g11
S'\x00\x00\x00\x00\x00\x00\x00\x00'
tRp1191
sg19
F0.24299999999999999
sg20
I0
sg21
I0
sg22
I0
sg23
I0
sg24
g10
(g11
S'\x00\x00\x00\x00\x00\x00\x00\x00'
tRp1192
sg26
g10
(g11
S'\xea\x89\x8f\x02]\x9aP@'
tRp1193
sg28
g10
(g11
S'\xdd]6\x91\xea>\x90?'
tRp1194
sg30
I0
sg31
F0
sg32
g10
(g11
S'\xa9G\xde\xdbV\xf8\xe7?'
tRp1195
sg34
g1
(g2
(I0
tS'b'
tRp1196
(I1
(I1
tg11
I00
S'\xc0&\xe7\x0c\xff\xbd~@'
tbsg36
g10
(g11
S'r\x08P\xca"\xf7\xe8?'
tRp1197
sg38
I0
sg39
I0
sg40
g1
(g2
(I0
tS'b'
tRp1198
(I1
(I1
tg11
I00
S'\x9bN\x07\xb2\x9e\x98\x1d@'
tbsg42
I0
sg43
I0
sg44
g10
(g11
S'\xde\xc3<8P\xc3\xf6?'
tRp1199
sg46
g10
(g11
S'\x96\x7f\x9ap)\\\xb9@'
tRp1200
sg48
g10
(g11
S"!\xfd\x7f\xac'\xa5\xde?"
tRp1201
sg50
I0
sg51
g10
(g11
S'\x8el1\x92+\xc4V@'
tRp1202
ssg53
S'15'
p1203
sg55
F-68.851600000000005
sg56
g10
(g11
S'Zd;\xdfO\xcd"\xc0'
tRp1204
sg58
(dp1205
g38
I0
sg24
g1192
sg17
g1191
sg19
F0.24299999999999999
sg20
I0
sg21
I0
sg22
I0
sg23
I0
sg16
I0
sg26
g1193
sg28
g1194
sg31
F0
sg32
g1195
sg44
g1199
sg34
g1196
sg36
g1197
sg40
g1198
sg15
I0
sg39
I0
sg50
I0
sg42
I0
sg43
I0
sg30
I0
sg46
g1200
sg48
g1201
sg51
g1202
ssg60
I5
sg61
S'1'
sg62
F5.0950199999999999
sg63
S'4054'
p1206
sg65
g10
(g11
S'\xf8\x89\x03hJ+\xe9@'
tRp1207
sg67
g10
(g11
S'\xf05\x04G\xef\xd6\xe7@'
tRp1208
sba(idata_structure
C_TSi
p1209
(dp1210
g9
g10
(g11
S'\xfa~j\xbct\x93h?'
tRp1211
sg13
(dp1212
g15
I0
sg16
I0
sg17
g10
(g11
S'\x00\x00\x00\x00\x00\x00\x00\x00'
tRp1213
sg19
F0.23000000000000001
sg20
I0
sg21
I0
sg22
I0
sg23
I0
sg24
g10
(g11
S'\x00\x00\x00\x00\x00\x00\x00\x00'
tRp1214
sg26
g10
(g11
S'\xf7V\x07\x08@&J@'
tRp1215
sg28
g10
(g11
S'W\xa4\x9b\xa4^\xbc\x93?'
tRp1216
sg30
I0
sg31
F0
sg32
g10
(g11
S'\xf4J\xfb\xf7\xf97\xf1?'
tRp1217
sg34
g1
(g2
(I0
tS'b'
tRp1218
(I1
(I1
tg11
I00
S'[\xbe\x9fU\xcf\x97u@'
tbsg36
g10
(g11
S'\xca\xe3\x01_W>\x02@'
tRp1219
sg38
I0
sg39
I0
sg40
g1
(g2
(I0
tS'b'
tRp1220
(I1
(I1
tg11
I00
S'\x04\xc9\x84G;\x88\x11@'
tbsg42
I0
sg43
I0
sg44
g10
(g11
S'PO\x8e\x12{\x95\xfc?'
tRp1221
sg46
g10
(g11
S'fZ\xb6\x1175\xae@'
tRp1222
sg48
g10
(g11
S'\xd8x\x95\xfc2\xf7\xdd?'
tRp1223
sg50
I0
sg51
g10
(g11
S'\x14>\xcc\x0f\xd0\xd4S@'
tRp1224
ssg53
S'2227'
p1225
sg55
F-68.7684
sg56
g10
(g11
S'V\x0e-\xb2\x9do!\xc0'
tRp1226
sg58
(dp1227
g38
I0
sg24
g1214
sg17
g1213
sg19
F0.23000000000000001
sg20
I0
sg21
I0
sg22
I0
sg23
I0
sg16
I0
sg26
g1215
sg28
g1216
sg31
F0
sg32
g1217
sg44
g1221
sg34
g1218
sg36
g1219
sg40
g1220
sg15
I0
sg39
I0
sg50
I0
sg42
I0
sg43
I0
sg30
I0
sg46
g1222
sg48
g1223
sg51
g1224
ssg60
I5
sg61
S'1'
sg62
F5.0872999999999999
sg63
S'4055'
p1228
sg65
g10
(g11
S'\xf8\x89\x03hJ+\xe9@'
tRp1229
sg67
g10
(g11
S'\x1b\xa1\x9f\xa9\x0e\xd7\xe7@'
tRp1230
sba(idata_structure
C_TSi
p1231
(dp1232
g9
g10
(g11
S'\xfc\xa9\xf1\xd2Mbp?'
tRp1233
sg13
(dp1234
g15
I0
sg16
I0
sg17
g10
(g11
S'\x00\x00\x00\x00\x00\x00\x00\x00'
tRp1235
sg19
F0.23499999999999999
sg20
I0
sg21
I0
sg22
I0
sg23
I0
sg24
g10
(g11
S'\x00\x00\x00\x00\x00\x00\x00\x00'
tRp1236
sg26
g10
(g11
S'\x9a\xc9\xfd\xcdo\xf2K@'
tRp1237
sg28
g10
(g11
S'\xbb\xfe6\x0eV\xf5\x96?'
tRp1238
sg30
I0
sg31
F0
sg32
g10
(g11
S'\\\xed\xbak\xb8\x17\xf2?'
tRp1239
sg34
g1
(g2
(I0
tS'b'
tRp1240
(I1
(I1
tg11
I00
S'\xcc\xd0\xd9\xd4\xbd(w@'
tbsg36
g10
(g11
S'`\x97L"\t\x11\xec?'
tRp1241
sg38
I0
sg39
I0
sg40
g1
(g2
(I0
tS'b'
tRp1242
(I1
(I1
tg11
I00
S'\x94(D\xb7\xb2\xb6\x12@'
tbsg42
I0
sg43
I0
sg44
g10
(g11
S'\xbaN\xd5\xe6\xed\x08\xfd?'
tRp1243
sg46
g10
(g11
S'\x15*\xc9-\xe9E\xb1@'
tRp1244
sg48
g10
(g11
S'\xe8\x93\x13\xe7\xab\xba\xde?'
tRp1245
sg50
I0
sg51
g10
(g11
S'\x8b\xfa&5\xf18U@'
tRp1246
ssg53
S'24'
p1247
sg55
F-69.158500000000004
sg56
g10
(g11
S'!\xb0rh\x91-!\xc0'
tRp1248
sg58
(dp1249
g38
I0
sg24
g1236
sg17
g1235
sg19
F0.23499999999999999
sg20
I0
sg21
I0
sg22
I0
sg23
I0
sg16
I0
sg26
g1237
sg28
g1238
sg31
F0
sg32
g1239
sg44
g1243
sg34
g1240
sg36
g1241
sg40
g1242
sg15
I0
sg39
I0
sg50
I0
sg42
I0
sg43
I0
sg30
I0
sg46
g1244
sg48
g1245
sg51
g1246
ssg60
I5
sg61
S'1'
sg62
F5.0979000000000001
sg63
S'4171'
p1250
sg65
g10
(g11
S'\xf8\x89\x03hJ+\xe9@'
tRp1251
sg67
g10
(g11
S'Vb\x9e\x95\xef\xd6\xe7@'
tRp1252
sba(idata_structure
C_TSi
p1253
(dp1254
g9
g10
(g11
S'\xfc\xa9\xf1\xd2Mb`?'
tRp1255
sg13
(dp1256
g15
I0
sg16
I0
sg17
g10
(g11
S'\x00\x00\x00\x00\x00\x00\x00\x00'
tRp1257
sg19
F0.114
sg20
I0
sg21
I0
sg22
I0
sg23
I0
sg24
g10
(g11
S'\x00\x00\x00\x00\x00\x00\x00\x00'
tRp1258
sg26
g10
(g11
S'\x9f(5>\xaeX=@'
tRp1259
sg28
g10
(g11
S'r\xa2\xd2\x91"\x87y?'
tRp1260
sg30
I0
sg31
F0
sg32
g10
(g11
S'\xfdM\xe1kC\x95\xef?'
tRp1261
sg34
g1
(g2
(I0
tS'b'
tRp1262
(I1
(I1
tg11
I00
S'\r\xb1\xc4I\xfb\xd8\x81@'
tbsg36
g10
(g11
S'\x9c\xc6z%\x04\x1b\xf2?'
tRp1263
sg38
I0
sg39
I0
sg40
g1
(g2
(I0
tS'b'
tRp1264
(I1
(I1
tg11
I00
S'\x8a\x9dQ\xb0%\x9e\x12@'
tbsg42
I0
sg43
I0
sg44
g10
(g11
S'\xfb^r\xec>\xfd\xfa?'
tRp1265
sg46
g10
(g11
S'\x1f\xdf\xb7~\x8d"\x92@'
tRp1266
sg48
g10
(g11
S'bg\x83\x97\xa5\x85\xdc?'
tRp1267
sg50
I0
sg51
g10
(g11
S'\x12M\xb7$Y\x19U@'
tRp1268
ssg53
S'14'
p1269
sg55
F-68.865899999999996
sg56
g10
(g11
S'V\x0e-\xb2\x9d\xef"\xc0'
tRp1270
sg58
(dp1271
g38
I0
sg24
g1258
sg17
g1257
sg19
F0.114
sg20
I0
sg21
I0
sg22
I0
sg23
I0
sg16
I0
sg26
g1259
sg28
g1260
sg31
F0
sg32
g1261
sg44
g1265
sg34
g1262
sg36
g1263
sg40
g1264
sg15
I0
sg39
I0
sg50
I0
sg42
I0
sg43
I0
sg30
I0
sg46
g1266
sg48
g1267
sg51
g1268
ssg60
I5
sg61
S'1'
sg62
F5.1041400000000001
sg63
S'4175'
p1272
sg65
g10
(g11
S'\xf8\x89\x03hJ+\xe9@'
tRp1273
sg67
g10
(g11
S'\xf05\x04G\xef\xd6\xe7@'
tRp1274
sba(idata_structure
C_TSi
p1275
(dp1276
g9
g10
(g11
S'\xfc\xa9\xf1\xd2Mb\x80?'
tRp1277
sg13
(dp1278
g15
I0
sg16
I0
sg17
g10
(g11
S'\x00\x00\x00\x00\x00\x00\x00\x00'
tRp1279
sg19
F0.111
sg20
I0
sg21
I0
sg22
I0
sg23
I0
sg24
g10
(g11
S'\x00\x00\x00\x00\x00\x00\x00\x00'
tRp1280
sg26
g10
(g11
S'\x80\n\xa9\x91\xf9\xea!@'
tRp1281
sg28
g10
(g11
S'\xcb\xe0M\xaf_I\x80?'
tRp1282
sg30
I0
sg31
F0
sg32
g10
(g11
S'\x02(\x0c\xac\xb9Y\xf8?'
tRp1283
sg34
g1
(g2
(I0
tS'b'
tRp1284
(I1
(I1
tg11
I00
S'f\xf3\xdc\xfcK\xde\x80@'
tbsg36
g10
(g11
S'\x06!\xa6D]G\xff?'
tRp1285
sg38
I0
sg39
I0
sg40
g1
(g2
(I0
tS'b'
tRp1286
(I1
(I1
tg11
I00
S'\xf3\xe4\xf4\x00\xf9X\x00@'
tbsg42
I0
sg43
I0
sg44
g10
(g11
S'\xb6m\xf4\xbe\x174\x01@'
tRp1287
sg46
g10
(g11
S'Y\x840\xff\xd5\xa8_@'
tRp1288
sg48
g10
(g11
S'\x13\xbd^\n\xdb\xa4\xdd?'
tRp1289
sg50
I0
sg51
g10
(g11
S'B/\x12Yb\xd7T@'
tRp1290
ssg53
S'34'
p1291
sg55
F-68.789299999999997
sg56
g10
(g11
S'\x8d\x97n\x12\x83\x80 \xc0'
tRp1292
sg58
(dp1293
g38
I0
sg24
g1280
sg17
g1279
sg19
F0.111
sg20
I0
sg21
I0
sg22
I0
sg23
I0
sg16
I0
sg26
g1281
sg28
g1282
sg31
F0
sg32
g1283
sg44
g1287
sg34
g1284
sg36
g1285
sg40
g1286
sg15
I0
sg39
I0
sg50
I0
sg42
I0
sg43
I0
sg30
I0
sg46
g1288
sg48
g1289
sg51
g1290
ssg60
I5
sg61
S'1'
sg62
F5.1045999999999996
sg63
S'4176'
p1294
sg65
g10
(g11
S'\xf8\x89\x03hJ+\xe9@'
tRp1295
sg67
g10
(g11
S'\x1b\xa1\x9f\xa9\x0e\xd7\xe7@'
tRp1296
sba(idata_structure
C_TSi
p1297
(dp1298
g9
g10
(g11
S'\xfc\xa9\xf1\xd2Mbp?'
tRp1299
sg13
(dp1300
g15
I1
sg16
I0
sg17
g10
(g11
S'\x00\x00\x00\x00\x00\x00\x00\x00'
tRp1301
sg19
F0.27200000000000002
sg20
I0
sg21
I0
sg22
I0
sg23
I0
sg24
g10
(g11
S'\x00\x00\x00\x00\x00\x00\x00\x00'
tRp1302
sg26
g10
(g11
S'>\xa1\x1e_4\x92=@'
tRp1303
sg28
g10
(g11
S'\x9a\xd0\xc7\xe5>\xfe\x8d?'
tRp1304
sg30
I0
sg31
F0
sg32
g10
(g11
S'B\x9d\x85\x11\x8e\xf7\xf1?'
tRp1305
sg34
g1
(g2
(I0
tS'b'
tRp1306
(I1
(I1
tg11
I00
S'\x0c\xd0\xc7e\xd5:~@'
tbsg36
g10
(g11
S'#\x1e\xe5\xf0]\xcd\xf3?'
tRp1307
sg38
I0
sg39
I0
sg40
g1
(g2
(I0
tS'b'
tRp1308
(I1
(I1
tg11
I00
S'\x80G\xe365!\x10@'
tbsg42
I0
sg43
I0
sg44
g10
(g11
S'#\xe0\xfd\xf2u\x91\xfd?'
tRp1309
sg46
g10
(g11
S'&\xce\x13{J\x95\x93@'
tRp1310
sg48
g10
(g11
S';\x18[V\x1e\xee\xdd?'
tRp1311
sg50
I0
sg51
g10
(g11
S'\x06_mB\xbcjT@'
tRp1312
ssg53
S'25'
p1313
sg55
F-69.305899999999994
sg56
g10
(g11
S'\xa2E\xb6\xf3\xfd\x94 \xc0'
tRp1314
sg58
(dp1315
g38
I0
sg24
g1302
sg17
g1301
sg19
F0.27200000000000002
sg20
I0
sg21
I0
sg22
I0
sg23
I0
sg16
I0
sg26
g1303
sg28
g1304
sg31
F0
sg32
g1305
sg44
g1309
sg34
g1306
sg36
g1307
sg40
g1308
sg15
I1
sg39
I0
sg50
I0
sg42
I0
sg43
I0
sg30
I0
sg46
g1310
sg48
g1311
sg51
g1312
ssg60
I5
sg61
S'1'
sg62
F5.1165399999999996
sg63
S'4289'
p1316
sg65
g10
(g11
S'hur\x06\xab*\xe9@'
tRp1317
sg67
g10
(g11
S'Vb\x9e\x95\xef\xd6\xe7@'
tRp1318
sba(idata_structure
C_TSi
p1319
(dp1320
g9
g10
(g11
S'{\x14\xaeG\xe1zt?'
tRp1321
sg13
(dp1322
g15
I0
sg16
I0
sg17
g10
(g11
S'\x00\x00\x00\x00\x00\x00\x00\x00'
tRp1323
sg19
F0.14999999999999999
sg20
I0
sg21
I0
sg22
I0
sg23
I0
sg24
g10
(g11
S'\x00\x00\x00\x00\x00\x00\x00\x00'
tRp1324
sg26
g10
(g11
S'ZD\x1f\xd7`\x0b4@'
tRp1325
sg28
g10
(g11
S'hQ6\xcd\x01\xc3\x87?'
tRp1326
sg30
I0
sg31
F0
sg32
g10
(g11
S'\x0f\x14\xba\x08\xfag\xf7?'
tRp1327
sg34
g1
(g2
(I0
tS'b'
tRp1328
(I1
(I1
tg11
I00
S'\x88\xb99\xed\x8c\x84w@'
tbsg36
g10
(g11
S'\xdcp\x99\x8f\x98o\xf2?'
tRp1329
sg38
I0
sg39
I0
sg40
g1
(g2
(I0
tS'b'
tRp1330
(I1
(I1
tg11
I00
S'M\xaf\x8d\xd0.F\x01@'
tbsg42
I0
sg43
I0
sg44
g10
(g11
S'|\x96y\x8a\x19\xe6\x00@'
tRp1331
sg46
g10
(g11
S'\xf1\xcf\xcb\xe2\xd8\x0f\x80@'
tRp1332
sg48
g10
(g11
S'\x1eo\x9d\xee\x8f\r\xdd?'
tRp1333
sg50
I0
sg51
g10
(g11
S"'\xe0SKx\xc4T@"
tRp1334
ssg53
S'35'
p1335
sg55
F-69.171700000000001
sg56
g10
(g11
S'\x0c\x02+\x87\x16\x99 \xc0'
tRp1336
sg58
(dp1337
g38
I0
sg24
g1324
sg17
g1323
sg19
F0.14999999999999999
sg20
I0
sg21
I0
sg22
I0
sg23
I0
sg16
I0
sg26
g1325
sg28
g1326
sg31
F0
sg32
g1327
sg44
g1331
sg34
g1328
sg36
g1329
sg40
g1330
sg15
I0
sg39
I0
sg50
I0
sg42
I0
sg43
I0
sg30
I0
sg46
g1332
sg48
g1333
sg51
g1334
ssg60
I5
sg61
S'1'
sg62
F5.1172500000000003
sg63
S'4291'
p1338
sg65
g10
(g11
S'\xf8\x89\x03hJ+\xe9@'
tRp1339
sg67
g10
(g11
S'Vb\x9e\x95\xef\xd6\xe7@'
tRp1340
sba(idata_structure
C_TSi
p1341
(dp1342
g9
g10
(g11
S'\xfa~j\xbct\x93x?'
tRp1343
sg13
(dp1344
g15
I0
sg16
I0
sg17
g10
(g11
S'\x00\x00\x00\x00\x00\x00\x00\x00'
tRp1345
sg19
F0.14799999999999999
sg20
I0
sg21
I0
sg22
I0
sg23
I0
sg24
g10
(g11
S'\x00\x00\x00\x00\x00\x00\x00\x00'
tRp1346
sg26
g10
(g11
S'\x11\xf3\xaa\xa1\x17\x14B@'
tRp1347
sg28
g10
(g11
S'k\x94\x8b\xe0Nr\x96?'
tRp1348
sg30
I0
sg31
F0
sg32
g10
(g11
S'\xd7@J\xb1P\xfc\xf4?'
tRp1349
sg34
g1
(g2
(I0
tS'b'
tRp1350
(I1
(I1
tg11
I00
S'>}n\x0b \xe9v@'
tbsg36
g10
(g11
S'@\xf75FK\\\xef?'
tRp1351
sg38
I0
sg39
I0
sg40
g1
(g2
(I0
tS'b'
tRp1352
(I1
(I1
tg11
I00
S'\xc5\\\xc4\xbfC\xad\r@'
tbsg42
I0
sg43
I0
sg44
g10
(g11
S'\xb3=\x8f\xc9\x1b\x9e\xff?'
tRp1353
sg46
g10
(g11
S'\xb0\xc1dZ\xcd\xa2\x9c@'
tRp1354
sg48
g10
(g11
S'D\x0eI;\x9d\x13\xde?'
tRp1355
sg50
I0
sg51
g10
(g11
S'\x85\x0f\x1c\x0c\xa6\x07U@'
tRp1356
ssg53
S'36'
p1357
sg55
F-68.962999999999994
sg56
g10
(g11
S'\x92\xed|?5\xbe \xc0'
tRp1358
sg58
(dp1359
g38
I0
sg24
g1346
sg17
g1345
sg19
F0.14799999999999999
sg20
I0
sg21
I0
sg22
I0
sg23
I0
sg16
I0
sg26
g1347
sg28
g1348
sg31
F0
sg32
g1349
sg44
g1353
sg34
g1350
sg36
g1351
sg40
g1352
sg15
I0
sg39
I0
sg50
I0
sg42
I0
sg43
I0
sg30
I0
sg46
g1354
sg48
g1355
sg51
g1356
ssg60
I5
sg61
S'1'
sg62
F5.1108500000000001
sg63
S'4294'
p1360
sg65
g10
(g11
S'\xf8\x89\x03hJ+\xe9@'
tRp1361
sg67
g10
(g11
S'\xf05\x04G\xef\xd6\xe7@'
tRp1362
sba(idata_structure
C_TSi
p1363
(dp1364
g9
g10
(g11
S';\xdfO\x8d\x97n\x82?'
tRp1365
sg13
(dp1366
g15
I0
sg16
I0
sg17
g10
(g11
S'\x00\x00\x00\x00\x00\x00\x00\x00'
tRp1367
sg19
F0.161
sg20
I0
sg21
I0
sg22
I0
sg23
I0
sg24
g10
(g11
S'\x00\x00\x00\x00\x00\x00\x00\x00'
tRp1368
sg26
g10
(g11
S'\xf9\xfe\\P\x02\xda\x13@'
tRp1369
sg28
g10
(g11
S'\xac7M5>\xbbz?'
tRp1370
sg30
I0
sg31
F0
sg32
g10
(g11
S'@i\x9b/<\x0b\xf6?'
tRp1371
sg34
g1
(g2
(I0
tS'b'
tRp1372
(I1
(I1
tg11
I00
S'\xbe^4\xf6\xfc\x96|@'
tbsg36
g10
(g11
S'\xb6XZ\xed\xc1U\x02@'
tRp1373
sg38
I0
sg39
I0
sg40
g1
(g2
(I0
tS'b'
tRp1374
(I1
(I1
tg11
I00
S'\x92\x9dM\xb7\xceu\xf7?'
tbsg42
I0
sg43
I0
sg44
g10
(g11
S'E\x9d\x14\x1bm\x8a\x00@'
tRp1375
sg46
g10
(g11
S'\x04\x9fKi\xc6\xcbB@'
tRp1376
sg48
g10
(g11
S'A\x92 \x03\xe3\xf6\xdc?'
tRp1377
sg50
I0
sg51
g10
(g11
S'\xba\x98\xe2\x88\x11\xc7T@'
tRp1378
ssg53
S'70'
p1379
sg55
F-68.893199999999993
sg56
g10
(g11
S'\xdb\xf9~j\xbc\xf4\x1e\xc0'
tRp1380
sg58
(dp1381
g38
I0
sg24
g1368
sg17
g1367
sg19
F0.161
sg20
I0
sg21
I0
sg22
I0
sg23
I0
sg16
I0
sg26
g1369
sg28
g1370
sg31
F0
sg32
g1371
sg44
g1375
sg34
g1372
sg36
g1373
sg40
g1374
sg15
I0
sg39
I0
sg50
I0
sg42
I0
sg43
I0
sg30
I0
sg46
g1376
sg48
g1377
sg51
g1378
ssg60
I5
sg61
S'1'
sg62
F5.1173000000000002
sg63
S'4296'
p1382
sg65
g10
(g11
S'\xf8\x89\x03hJ+\xe9@'
tRp1383
sg67
g10
(g11
S'\xf05\x04G\xef\xd6\xe7@'
tRp1384
sba(idata_structure
C_TSi
p1385
(dp1386
g9
g10
(g11
S'\xfc\xa9\xf1\xd2Mbp?'
tRp1387
sg13
(dp1388
g15
I1
sg16
I0
sg17
g10
(g11
S'\x00\x00\x00\x00\x00\x00\x00\x00'
tRp1389
sg19
F0.29899999999999999
sg20
I0
sg21
I0
sg22
I0
sg23
I0
sg24
g10
(g11
S'\x00\x00\x00\x00\x00\x00\x00\x00'
tRp1390
sg26
g10
(g11
S'\x8a\x96\xc2Q;KC@'
tRp1391
sg28
g10
(g11
S'S\xe0k\xc5\xfee\x94?'
tRp1392
sg30
I0
sg31
F0
sg32
g10
(g11
S'\xc9j\x18\xc3\xec\xd0\xf3?'
tRp1393
sg34
g1
(g2
(I0
tS'b'
tRp1394
(I1
(I1
tg11
I00
S'l?\xcf\x9b\x7f\x1cx@'
tbsg36
g10
(g11
S'\x8b\x91\x8e\xe2\xf3\xee\xee?'
tRp1395
sg38
I0
sg39
I0
sg40
g1
(g2
(I0
tS'b'
tRp1396
(I1
(I1
tg11
I00
S'\x94H}d\x13g\x10@'
tbsg42
I0
sg43
I0
sg44
g10
(g11
S'\xb2/\xa0j\xd0$\xfe?'
tRp1397
sg46
g10
(g11
S'mP\x8e\x02\xcaz\xa0@'
tRp1398
sg48
g10
(g11
S'}\x8a\x95\x17s4\xde?'
tRp1399
sg50
I0
sg51
g10
(g11
S'\xc0{\xc6Q\xea\x10U@'
tRp1400
ssg53
S'29'
p1401
sg55
F-69.215800000000002
sg56
g10
(g11
S'\x87\x16\xd9\xce\xf7\x93 \xc0'
tRp1402
sg58
(dp1403
g38
I0
sg24
g1390
sg17
g1389
sg19
F0.29899999999999999
sg20
I0
sg21
I0
sg22
I0
sg23
I0
sg16
I0
sg26
g1391
sg28
g1392
sg31
F0
sg32
g1393
sg44
g1397
sg34
g1394
sg36
g1395
sg40
g1396
sg15
I1
sg39
I0
sg50
I0
sg42
I0
sg43
I0
sg30
I0
sg46
g1398
sg48
g1399
sg51
g1400
ssg60
I5
sg61
S'1'
sg62
F5.1251499999999997
sg63
S'4412'
p1404
sg65
g10
(g11
S'\xf8\x89\x03hJ+\xe9@'
tRp1405
sg67
g10
(g11
S'Vb\x9e\x95\xef\xd6\xe7@'
tRp1406
sba(idata_structure
C_TSi
p1407
(dp1408
g9
g10
(g11
S'\xfc\xa9\xf1\xd2Mbp?'
tRp1409
sg13
(dp1410
g15
I2
sg16
I0
sg17
g10
(g11
S'\x00\x00\x00\x00\x00\x00\x00\x00'
tRp1411
sg19
F0.12
sg20
I0
sg21
I0
sg22
I0
sg23
I0
sg24
g10
(g11
S'\x00\x00\x00\x00\x00\x00\x00\x00'
tRp1412
sg26
g10
(g11
S'\x07\xb9h\x08\xc6\xdc6@'
tRp1413
sg28
g10
(g11
S'-\xf6\xd0\x80\xaf(\x88?'
tRp1414
sg30
I1
sg31
F0
sg32
g10
(g11
S'G\x80X\xe8\xbbH\xfa?'
tRp1415
sg34
g1
(g2
(I0
tS'b'
tRp1416
(I1
(I1
tg11
I00
S'\xb8-y#r\xfem@'
tbsg36
g10
(g11
S'\xec.MP;}\xed?'
tRp1417
sg38
I0
sg39
I0
sg40
g1
(g2
(I0
tS'b'
tRp1418
(I1
(I1
tg11
I00
S'\xd9@A\x9f\xb2s\xfe?'
tbsg42
I0
sg43
I0
sg44
g10
(g11
S'\xed\x9f\x07I\xe0T\x02@'
tRp1419
sg46
g10
(g11
S'Yv\x91\x8e\xc8\x08\x84@'
tRp1420
sg48
g10
(g11
S'bV\xce\xdcR\xc6\xdd?'
tRp1421
sg50
I0
sg51
g10
(g11
S'\xf9\xfa\x18\x8b\x8c\xefJ@'
tRp1422
ssg53
S'42'
p1423
sg55
F-69.045900000000003
sg56
g10
(g11
S'\xbct\x93\x18\x04V \xc0'
tRp1424
sg58
(dp1425
g38
I0
sg24
g1412
sg17
g1411
sg19
F0.12
sg20
I0
sg21
I0
sg22
I0
sg23
I0
sg16
I0
sg26
g1413
sg28
g1414
sg31
F0
sg32
g1415
sg44
g1419
sg34
g1416
sg36
g1417
sg40
g1418
sg15
I2
sg39
I0
sg50
I0
sg42
I0
sg43
I0
sg30
I1
sg46
g1420
sg48
g1421
sg51
g1422
ssg60
I5
sg61
S'1'
sg62
F5.1305199999999997
sg63
S'4414'
p1426
sg65
g10
(g11
S'\xf8\x89\x03hJ+\xe9@'
tRp1427
sg67
g10
(g11
S'\xb1n\xbc\xbb\xb0\xe8\xe7@'
tRp1428
sba(idata_structure
C_TSi
p1429
(dp1430
g9
g10
(g11
S'{\x14\xaeG\xe1z\x94?'
tRp1431
sg13
(dp1432
g15
I1
sg16
I0
sg17
g10
(g11
S'\x00\x00\x00\x00\x00\x00\x00\x00'
tRp1433
sg19
F0.27700000000000002
sg20
I0
sg21
I0
sg22
I0
sg23
I0
sg24
g10
(g11
S'\x00\x00\x00\x00\x00\x00\x00\x00'
tRp1434
sg26
g10
(g11
S'5\x05\xda@\xfc\xf9\x10@'
tRp1435
sg28
g10
(g11
S'\x88\xaai\x98\x84\xad\x87?'
tRp1436
sg30
I1
sg31
F0
sg32
g10
(g11
S'N\r\x08\xa5R\xc0\xf2?'
tRp1437
sg34
g1
(g2
(I0
tS'b'
tRp1438
(I1
(I1
tg11
I00
S'\x9f\xfb#r\x18\x0ep@'
tbsg36
g10
(g11
S'YCz\x91\x10<\x03@'
tRp1439
sg38
I0
sg39
I0
sg40
g1
(g2
(I0
tS'b'
tRp1440
(I1
(I1
tg11
I00
S'\xf1\xfb\x06\xee\xc8b\xfd?'
tbsg42
I0
sg43
I0
sg44
g10
(g11
S'&O\x04[\x81\xdf\xfe?'
tRp1441
sg46
g10
(g11
S'Jj\xd5\xcd\xce\xec@@'
tRp1442
sg48
g10
(g11
S'\xdc\xee@Q\xaf\xb5\xdd?'
tRp1443
sg50
I0
sg51
g10
(g11
S':\xcc\xa1Q\x19\xfcR@'
tRp1444
ssg53
S'55'
p1445
sg55
F-69.0261
sg56
g10
(g11
S'33333\xb3\x1e\xc0'
tRp1446
sg58
(dp1447
g38
I0
sg24
g1434
sg17
g1433
sg19
F0.27700000000000002
sg20
I0
sg21
I0
sg22
I0
sg23
I0
sg16
I0
sg26
g1435
sg28
g1436
sg31
F0
sg32
g1437
sg44
g1441
sg34
g1438
sg36
g1439
sg40
g1440
sg15
I1
sg39
I0
sg50
I0
sg42
I0
sg43
I0
sg30
I1
sg46
g1442
sg48
g1443
sg51
g1444
ssg60
I5
sg61
S'1'
sg62
F5.1217800000000002
sg63
S'4415'
p1448
sg65
g10
(g11
S'\xf8\x89\x03hJ+\xe9@'
tRp1449
sg67
g10
(g11
S'\x1b\xa1\x9f\xa9\x0e\xd7\xe7@'
tRp1450
sba(idata_structure
C_TSi
p1451
(dp1452
g9
g10
(g11
S'{\x14\xaeG\xe1zt?'
tRp1453
sg13
(dp1454
g15
I0
sg16
I0
sg17
g10
(g11
S'\x00\x00\x00\x00\x00\x00\x00\x00'
tRp1455
sg19
F0.19400000000000001
sg20
I0
sg21
I0
sg22
I0
sg23
I0
sg24
g10
(g11
S'\x00\x00\x00\x00\x00\x00\x00\x00'
tRp1456
sg26
g10
(g11
S'\xb7\x8dvPn\xfeD@'
tRp1457
sg28
g10
(g11
S'\x88h\xe4O\xb2\xf7\x97?'
tRp1458
sg30
I5
sg31
F0
sg32
g10
(g11
S'\x13\xaf\x1c\xbe\x9b\xec\xf4?'
tRp1459
sg34
g1
(g2
(I0
tS'b'
tRp1460
(I1
(I1
tg11
I00
S'\x02(`C\x9a\x82b@'
tbsg36
g10
(g11
S'\x00b\xe7\x8d\x10\xad\xec?'
tRp1461
sg38
I0
sg39
I0
sg40
g1
(g2
(I0
tS'b'
tRp1462
(I1
(I1
tg11
I00
S'\x1f\x9e\x14\xaf\xde\xd3\x10@'
tbsg42
I0
sg43
I0
sg44
g10
(g11
S'\xafS\x9a\xccS\x19\x00@'
tRp1463
sg46
g10
(g11
S'\x17\xfc\x12\xd3T\x9f\xa4@'
tRp1464
sg48
g10
(g11
S'\x0f|h\xffgI\xdd?'
tRp1465
sg50
I0
sg51
g10
(g11
S'\x1b\xe2\x1c\xe0\xed\xc4L@'
tRp1466
ssg53
S'13'
p1467
sg55
F-68.889399999999995
sg56
g10
(g11
S'\x7fj\xbct\x93\x18!\xc0'
tRp1468
sg58
(dp1469
g38
I0
sg24
g1456
sg17
g1455
sg19
F0.19400000000000001
sg20
I0
sg21
I0
sg22
I0
sg23
I0
sg16
I0
sg26
g1457
sg28
g1458
sg31
F0
sg32
g1459
sg44
g1463
sg34
g1460
sg36
g1461
sg40
g1462
sg15
I0
sg39
I0
sg50
I0
sg42
I0
sg43
I0
sg30
I5
sg46
g1464
sg48
g1465
sg51
g1466
ssg60
I5
sg61
S'1'
sg62
F5.1239299999999997
sg63
S'4417'
p1470
sg65
g10
(g11
S'\xf8\x89\x03hJ+\xe9@'
tRp1471
sg67
g10
(g11
S'\x1b\xa1\x9f\xa9\x0e\xd7\xe7@'
tRp1472
sba(idata_structure
C_TSi
p1473
(dp1474
g9
g10
(g11
S'Zd;\xdfO\x8d\x97?'
tRp1475
sg13
(dp1476
g15
I0
sg16
I0
sg17
g10
(g11
S'\x00\x00\x00\x00\x00\x00\x00\x00'
tRp1477
sg19
F1.1339999999999999
sg20
I0
sg21
I0
sg22
I0
sg23
I0
sg24
g10
(g11
S'\x00\x00\x00\x00\x00\x00\x00\x00'
tRp1478
sg26
g10
(g11
S'\x99\xb9]N_\x11\x04@'
tRp1479
sg28
g10
(g11
S'b\x94 \xb3\x06I\x89?'
tRp1480
sg30
I0
sg31
F0
sg32
g10
(g11
S'71l\xdc\x19\x00\xf7?'
tRp1481
sg34
g1
(g2
(I0
tS'b'
tRp1482
(I1
(I1
tg11
I00
S'\x94t\x94K\x01Oz@'
tbsg36
g10
(g11
S'\xb4\xb2\xc6FWC\xfb?'
tRp1483
sg38
I0
sg39
I0
sg40
g1
(g2
(I0
tS'b'
tRp1484
(I1
(I1
tg11
I00
S'/\x91\x05X\xb1A\x00@'
tbsg42
I0
sg43
I0
sg44
g10
(g11
S'o\x17\x12=sX\x00@'
tRp1485
sg46
g10
(g11
S"\x94\xca\x9b\xb8\xe0\xca'@"
tRp1486
sg48
g10
(g11
S'\xec\x9b\xf8\x15\rb\xdd?'
tRp1487
sg50
I0
sg51
g10
(g11
S':r\x94Ml@T@'
tRp1488
ssg53
S'168'
p1489
sg55
F-69.354699999999994
sg56
g10
(g11
S'\xc1\xca\xa1E\xb6s\x1a\xc0'
tRp1490
sg58
(dp1491
g38
I0
sg24
g1478
sg17
g1477
sg19
F1.1339999999999999
sg20
I0
sg21
I0
sg22
I0
sg23
I0
sg16
I0
sg26
g1479
sg28
g1480
sg31
F0
sg32
g1481
sg44
g1485
sg34
g1482
sg36
g1483
sg40
g1484
sg15
I0
sg39
I0
sg50
I0
sg42
I0
sg43
I0
sg30
I0
sg46
g1486
sg48
g1487
sg51
g1488
ssg60
I5
sg61
S'1'
sg62
F5.14072
sg63
S'4531'
p1492
sg65
g10
(g11
S'hur\x06\xab*\xe9@'
tRp1493
sg67
g10
(g11
S'\x1b\xa1\x9f\xa9\x0e\xd7\xe7@'
tRp1494
sba(idata_structure
C_TSi
p1495
(dp1496
g9
g10
(g11
S'\x9c\xc4 \xb0rh\x91?'
tRp1497
sg13
(dp1498
g15
I0
sg16
I0
sg17
g10
(g11
S'\x00\x00\x00\x00\x00\x00\x00\x00'
tRp1499
sg19
F0.56100000000000005
sg20
I0
sg21
I0
sg22
I0
sg23
I0
sg24
g10
(g11
S'\x00\x00\x00\x00\x00\x00\x00\x00'
tRp1500
sg26
g10
(g11
S'\xd0x9\xc4\xa3\x89\x06@'
tRp1501
sg28
g10
(g11
S'\x9a\x0fz\xf8\xe7\x1a\x84?'
tRp1502
sg30
I0
sg31
F0
sg32
g10
(g11
S'\x16O\xbd\xc1\xea\n\xf6?'
tRp1503
sg34
g1
(g2
(I0
tS'b'
tRp1504
(I1
(I1
tg11
I00
S'\xd0$5\x107\xf0w@'
tbsg36
g10
(g11
S'\x19\x84\xe1$\xcd\xdb\x00@'
tRp1505
sg38
I0
sg39
I0
sg40
g1
(g2
(I0
tS'b'
tRp1506
(I1
(I1
tg11
I00
S'\x80\x04\xf4X\xbbm\x00@'
tbsg42
I0
sg43
I0
sg44
g10
(g11
S'\xd6\xfe\x90\xf2\xaa/\x00@'
tRp1507
sg46
g10
(g11
S'\xe3H\x8aG\xf4\xbe1@'
tRp1508
sg48
g10
(g11
S'\xaf\xad\x04j\xeb\xc1\xdd?'
tRp1509
sg50
I0
sg51
g10
(g11
S'\x11/L\xa3\xc9XT@'
tRp1510
ssg53
S'99'
p1511
sg55
F-69.3553
sg56
g10
(g11
S'\x81\x95C\x8bl\xe7\x1b\xc0'
tRp1512
sg58
(dp1513
g38
I0
sg24
g1500
sg17
g1499
sg19
F0.56100000000000005
sg20
I0
sg21
I0
sg22
I0
sg23
I0
sg16
I0
sg26
g1501
sg28
g1502
sg31
F0
sg32
g1503
sg44
g1507
sg34
g1504
sg36
g1505
sg40
g1506
sg15
I0
sg39
I0
sg50
I0
sg42
I0
sg43
I0
sg30
I0
sg46
g1508
sg48
g1509
sg51
g1510
ssg60
I5
sg61
S'1'
sg62
F5.1408399999999999
sg63
S'4531'
p1514
sg65
g10
(g11
S'hur\x06\xab*\xe9@'
tRp1515
sg67
g10
(g11
S'\x1b\xa1\x9f\xa9\x0e\xd7\xe7@'
tRp1516
sba(idata_structure
C_TSi
p1517
(dp1518
g9
g10
(g11
S'\xfa~j\xbct\x93x?'
tRp1519
sg13
(dp1520
g15
I1
sg16
I0
sg17
g10
(g11
S'\x00\x00\x00\x00\x00\x00\x00\x00'
tRp1521
sg19
F0.23100000000000001
sg20
I0
sg21
I0
sg22
I0
sg23
I0
sg24
g10
(g11
S'\x00\x00\x00\x00\x00\x00\x00\x00'
tRp1522
sg26
g10
(g11
S'F\xa8\xbd\x07\xa1\xbc9@'
tRp1523
sg28
g10
(g11
S'\xbc\x8c[\xa5d\xfe\x92?'
tRp1524
sg30
I0
sg31
F0
sg32
g10
(g11
S'\xe2\xab\xc9\xee\x189\xf6?'
tRp1525
sg34
g1
(g2
(I0
tS'b'
tRp1526
(I1
(I1
tg11
I00
S'\x1bP\xb8\xa1\xeebx@'
tbsg36
g10
(g11
S'2@\xae\x01!\xe4\xf2?'
tRp1527
sg38
I0
sg39
I0
sg40
g1
(g2
(I0
tS'b'
tRp1528
(I1
(I1
tg11
I00
S'Rz\x82\xbb\x04\xc8\x08@'
tbsg42
I0
sg43
I0
sg44
g10
(g11
S'\xaf\xedh\x8b/\x94\x00@'
tRp1529
sg46
g10
(g11
S'D z\xc3s\x89\x8c@'
tRp1530
sg48
g10
(g11
S'\xa8\xc1;5\xe8B\xdd?'
tRp1531
sg50
I0
sg51
g10
(g11
S'Wm\x96vE8U@'
tRp1532
ssg53
S'66'
p1533
sg55
F-69.263599999999997
sg56
g10
(g11
S'\x8f\xc2\xf5(\\\x0f \xc0'
tRp1534
sg58
(dp1535
g38
I0
sg24
g1522
sg17
g1521
sg19
F0.23100000000000001
sg20
I0
sg21
I0
sg22
I0
sg23
I0
sg16
I0
sg26
g1523
sg28
g1524
sg31
F0
sg32
g1525
sg44
g1529
sg34
g1526
sg36
g1527
sg40
g1528
sg15
I1
sg39
I0
sg50
I0
sg42
I0
sg43
I0
sg30
I0
sg46
g1530
sg48
g1531
sg51
g1532
ssg60
I5
sg61
S'1'
sg62
F5.1361299999999996
sg63
S'4532'
p1536
sg65
g10
(g11
S'\xf8\x89\x03hJ+\xe9@'
tRp1537
sg67
g10
(g11
S'\xf05\x04G\xef\xd6\xe7@'
tRp1538
sba(idata_structure
C_TSi
p1539
(dp1540
g9
g10
(g11
S'{\x14\xaeG\xe1zt?'
tRp1541
sg13
(dp1542
g15
I0
sg16
I0
sg17
g10
(g11
S'\x00\x00\x00\x00\x00\x00\x00\x00'
tRp1543
sg19
F0.313
sg20
I0
sg21
I0
sg22
I0
sg23
I0
sg24
g10
(g11
S'\x00\x00\x00\x00\x00\x00\x00\x00'
tRp1544
sg26
g10
(g11
S'\x0c\xbbD\xff\xd2r$@'
tRp1545
sg28
g10
(g11
S'5fkx\xde7{?'
tRp1546
sg30
I0
sg31
F0
sg32
g10
(g11
S'\xce\x11F\xa4<a\xf2?'
tRp1547
sg34
g1
(g2
(I0
tS'b'
tRp1548
(I1
(I1
tg11
I00
S'\x9a?\x06Um\x9dv@'
tbsg36
g10
(g11
S'\xb0N)w\x83J\xee?'
tRp1549
sg38
I0
sg39
I0
sg40
g1
(g2
(I0
tS'b'
tRp1550
(I1
(I1
tg11
I00
S'\xbbL\xcf\xd3\x89\xda\x10@'
tbsg42
I0
sg43
I0
sg44
g10
(g11
S'S\x1c\xd5\xa5\xfe\xa3\xfd?'
tRp1551
sg46
g10
(g11
S'\xd7\xae#x\xe8\xcad@'
tRp1552
sg48
g10
(g11
S'\xf3?\x00\xd7\xc9\xef\xdc?'
tRp1553
sg50
I0
sg51
g10
(g11
S'0\xea,$\xbb\xcbT@'
tRp1554
ssg53
S'23'
p1555
sg55
F-69.140699999999995
sg56
g10
(g11
S'\xc3\xf5(\\\x8fB!\xc0'
tRp1556
sg58
(dp1557
g38
I0
sg24
g1544
sg17
g1543
sg19
F0.313
sg20
I0
sg21
I0
sg22
I0
sg23
I0
sg16
I0
sg26
g1545
sg28
g1546
sg31
F0
sg32
g1547
sg44
g1551
sg34
g1548
sg36
g1549
sg40
g1550
sg15
I0
sg39
I0
sg50
I0
sg42
I0
sg43
I0
sg30
I0
sg46
g1552
sg48
g1553
sg51
g1554
ssg60
I5
sg61
S'1'
sg62
F5.1453899999999999
sg63
S'4534'
p1558
sg65
g10
(g11
S'\xf8\x89\x03hJ+\xe9@'
tRp1559
sg67
g10
(g11
S'\x1b\xa1\x9f\xa9\x0e\xd7\xe7@'
tRp1560
sba(idata_structure
C_TSi
p1561
(dp1562
g9
g10
(g11
S'{\x14\xaeG\xe1zt?'
tRp1563
sg13
(dp1564
g15
I0
sg16
I0
sg17
g10
(g11
S'\x00\x00\x00\x00\x00\x00\x00\x00'
tRp1565
sg19
F0.21099999999999999
sg20
I0
sg21
I0
sg22
I0
sg23
I0
sg24
g10
(g11
S'\x00\x00\x00\x00\x00\x00\x00\x00'
tRp1566
sg26
g10
(g11
S'\x89\xf2H\xcch\x14B@'
tRp1567
sg28
g10
(g11
S'\xde(\xb4\x1d\xaao\x95?'
tRp1568
sg30
I0
sg31
F0.001718213058419244
sg32
g10
(g11
S'\xf0\xa7\xfdy\xf95\xf7?'
tRp1569
sg34
g1
(g2
(I0
tS'b'
tRp1570
(I1
(I1
tg11
I00
S'\xf5$\xc2\xd5\x15M\x7f@'
tbsg36
g10
(g11
S'W)\xe3\xedw\x08\xeb?'
tRp1571
sg38
I0
sg39
I0
sg40
g1
(g2
(I0
tS'b'
tRp1572
(I1
(I1
tg11
I00
S'iw\x13guO\x06@'
tbsg42
I0
sg43
I0
sg44
g10
(g11
S'C4\xd2\xf3\xe8\xe4\x00@'
tRp1573
sg46
g10
(g11
S'\x92\xdcB9\xb8\xe8\x9d@'
tRp1574
sg48
g10
(g11
S'K\x9d\x0cL\x86\xd8\xdd?'
tRp1575
sg50
I0
sg51
g10
(g11
S'\xd8\x18\x90\x90\x06\xf9T@'
tRp1576
ssg53
S'33'
p1577
sg55
F-69.128600000000006
sg56
g10
(g11
S'\xa8\xc6K7\x89\x01 \xc0'
tRp1578
sg58
(dp1579
g38
I0
sg24
g1566
sg17
g1565
sg19
F0.21099999999999999
sg20
I0
sg21
I0
sg22
I0
sg23
I0
sg16
I0
sg26
g1567
sg28
g1568
sg31
F0.001718213058419244
sg32
g1569
sg44
g1573
sg34
g1570
sg36
g1571
sg40
g1572
sg15
I0
sg39
I0
sg50
I0
sg42
I0
sg43
I0
sg30
I0
sg46
g1574
sg48
g1575
sg51
g1576
ssg60
I5
sg61
S'1'
sg62
F5.1417099999999998
sg63
S'4534'
p1580
sg65
g10
(g11
S'\xf8\x89\x03hJ+\xe9@'
tRp1581
sg67
g10
(g11
S'\x1b\xa1\x9f\xa9\x0e\xd7\xe7@'
tRp1582
sba(idata_structure
C_TSi
p1583
(dp1584
g9
g10
(g11
S'\xfc\xa9\xf1\xd2Mbp?'
tRp1585
sg13
(dp1586
g15
I0
sg16
I0
sg17
g10
(g11
S'\x00\x00\x00\x00\x00\x00\x00\x00'
tRp1587
sg19
F0.217
sg20
I0
sg21
I0
sg22
I0
sg23
I0
sg24
g10
(g11
S'\x00\x00\x00\x00\x00\x00\x00\x00'
tRp1588
sg26
g10
(g11
S'\xb3\xc5\r\x7f#\xd08@'
tRp1589
sg28
g10
(g11
S'J\x94\xd7\xad\xe4\xce\x8a?'
tRp1590
sg30
I0
sg31
F0
sg32
g10
(g11
S'm\xff\x11\x92_Y\xf7?'
tRp1591
sg34
g1
(g2
(I0
tS'b'
tRp1592
(I1
(I1
tg11
I00
S'Z\xd8B\x08\xbc\x7f\x81@'
tbsg36
g10
(g11
S'\xacL4\xf6\xbc\xab\xe7?'
tRp1593
sg38
I0
sg39
I0
sg40
g1
(g2
(I0
tS'b'
tRp1594
(I1
(I1
tg11
I00
S'\xdc\xa3$;\xb3\x0c\x0b@'
tbsg42
I0
sg43
I0
sg44
g10
(g11
S'\x18\x1c9/\xe9\x92\x00@'
tRp1595
sg46
g10
(g11
S'r\x88\x00\xdf9 \x89@'
tRp1596
sg48
g10
(g11
S'\xaf\x9eA\x92\t:\xdd?'
tRp1597
sg50
I0
sg51
g10
(g11
S'\xe1\x05\x0b0\xd6;U@'
tRp1598
ssg53
S'48'
p1599
sg55
F-69.1464
sg56
g10
(g11
S'\xe6\xd0"\xdb\xf9^ \xc0'
tRp1600
sg58
(dp1601
g38
I0
sg24
g1588
sg17
g1587
sg19
F0.217
sg20
I0
sg21
I0
sg22
I0
sg23
I0
sg16
I0
sg26
g1589
sg28
g1590
sg31
F0
sg32
g1591
sg44
g1595
sg34
g1592
sg36
g1593
sg40
g1594
sg15
I0
sg39
I0
sg50
I0
sg42
I0
sg43
I0
sg30
I0
sg46
g1596
sg48
g1597
sg51
g1598
ssg60
I5
sg61
S'1'
sg62
F5.1417999999999999
sg63
S'4534'
p1602
sg65
g10
(g11
S'\xf8\x89\x03hJ+\xe9@'
tRp1603
sg67
g10
(g11
S'\x1b\xa1\x9f\xa9\x0e\xd7\xe7@'
tRp1604
sba(idata_structure
C_TSi
p1605
(dp1606
g9
g10
(g11
S'y\xe9&1\x08\xac|?'
tRp1607
sg13
(dp1608
g15
I3
sg16
I0
sg17
g10
(g11
S'\\P-qjw\xcd?'
tRp1609
sg19
F0.19700000000000001
sg20
I1
sg21
I1
sg22
I0
sg23
I0
sg24
g10
(g11
S'\x00\x00\x00\x00\x00\x00\x00\x00'
tRp1610
sg26
g10
(g11
S'\xdf\xff\xb10)\xce;@'
tRp1611
sg28
g10
(g11
S'0pa\xf5\xadH\x96?'
tRp1612
sg30
I3
sg31
F0.0061601642710472282
sg32
g10
(g11
S'\xa6\xdfFV>(\xfe?'
tRp1613
sg34
g1
(g2
(I0
tS'b'
tRp1614
(I1
(I1
tg11
I00
S'\xcb3\xbemd3e@'
tbsg36
g10
(g11
S':\xf6\xc3\xb3<\xcb\xeb?'
tRp1615
sg38
I0
sg39
I0
sg40
g1
(g2
(I0
tS'b'
tRp1616
(I1
(I1
tg11
I00
S'I\x1a"_\xfa\xaf\x05@'
tbsg42
I0
sg43
I0
sg44
g10
(g11
S'\xf4\xbf\xca\xbe\x1c@\x03@'
tRp1617
sg46
g10
(g11
S'\xbc\xb8\xdf\xf1\xb4\xde\x92@'
tRp1618
sg48
g10
(g11
S'\xdb\x9cD\xb0u\x8b\xdf?'
tRp1619
sg50
I0
sg51
g10
(g11
S'\t\x1f\x97\xd0:\xcbK@'
tRp1620
ssg53
S'77'
p1621
sg55
F-68.816500000000005
sg56
g10
(g11
S'\xe1z\x14\xaeG\xe1\x1f\xc0'
tRp1622
sg58
(dp1623
g38
I0
sg24
g1610
sg17
g1609
sg19
F0.19700000000000001
sg20
I1
sg21
I1
sg22
I0
sg23
I0
sg16
I0
sg26
g1611
sg28
g1612
sg31
F0.0061601642710472282
sg32
g1613
sg44
g1617
sg34
g1614
sg36
g1615
sg40
g1616
sg15
I3
sg39
I0
sg50
I0
sg42
I0
sg43
I0
sg30
I3
sg46
g1618
sg48
g1619
sg51
g1620
ssg60
I5
sg61
S'1'
sg62
F5.1431399999999998
sg63
S'4539'
p1624
sg65
g10
(g11
S'\xf8\x89\x03hJ+\xe9@'
tRp1625
sg67
g10
(g11
S'\xb1n\xbc\xbb\xb0\xe8\xe7@'
tRp1626
sba(idata_structure
C_TSi
p1627
(dp1628
g9
g10
(g11
S'{\x14\xaeG\xe1zt?'
tRp1629
sg13
(dp1630
g15
I1
sg16
I0
sg17
g10
(g11
S'\x00\x00\x00\x00\x00\x00\x00\x00'
tRp1631
sg19
F0.070999999999999994
sg20
I0
sg21
I0
sg22
I0
sg23
I0
sg24
g10
(g11
S'\x00\x00\x00\x00\x00\x00\x00\x00'
tRp1632
sg26
g10
(g11
S'\x950U\xcdN*5@'
tRp1633
sg28
g10
(g11
S'\x92\xb4\xbf\x1b\x8c\x85\x88?'
tRp1634
sg30
I0
sg31
F0
sg32
g10
(g11
S'\xf1\xa8a\xfd@\xd7\xfc?'
tRp1635
sg34
g1
(g2
(I0
tS'b'
tRp1636
(I1
(I1
tg11
I00
S"\xd9\x10\x04\xbc\x99'x@"
tbsg36
g10
(g11
S'p\xc4(\xfb\xf7\xa4\xf3?'
tRp1637
sg38
I0
sg39
I0
sg40
g1
(g2
(I0
tS'b'
tRp1638
(I1
(I1
tg11
I00
S'\xa5NX\xa1\x06B\xf8?'
tbsg42
I0
sg43
I0
sg44
g10
(g11
S'w;\xa5\xc1\nl\x02@'
tRp1639
sg46
g10
(g11
S'\xc6k\x14\x0e\xa8\xba\x81@'
tRp1640
sg48
g10
(g11
S'\xdc\xf3\xd2\xa1:\xb9\xde?'
tRp1641
sg50
I0
sg51
g10
(g11
S'6\xb0p\x1f\xc3\x01U@'
tRp1642
ssg53
S'42'
p1643
sg55
F-69.299199999999999
sg56
g10
(g11
S'\x14\xaeG\xe1z\x14 \xc0'
tRp1644
sg58
(dp1645
g38
I0
sg24
g1632
sg17
g1631
sg19
F0.070999999999999994
sg20
I0
sg21
I0
sg22
I0
sg23
I0
sg16
I0
sg26
g1633
sg28
g1634
sg31
F0
sg32
g1635
sg44
g1639
sg34
g1636
sg36
g1637
sg40
g1638
sg15
I1
sg39
I0
sg50
I0
sg42
I0
sg43
I0
sg30
I0
sg46
g1640
sg48
g1641
sg51
g1642
ssg60
I5
sg61
S'1'
sg62
F5.15503
sg63
S'4652'
p1646
sg65
g10
(g11
S'hur\x06\xab*\xe9@'
tRp1647
sg67
g10
(g11
S'\x1b\xa1\x9f\xa9\x0e\xd7\xe7@'
tRp1648
sba(idata_structure
C_TSi
p1649
(dp1650
g9
g10
(g11
S'{\x14\xaeG\xe1zt?'
tRp1651
sg13
(dp1652
g15
I1
sg16
I0
sg17
g10
(g11
S'\x00\x00\x00\x00\x00\x00\x00\x00'
tRp1653
sg19
F0.25900000000000001
sg20
I0
sg21
I0
sg22
I0
sg23
I0
sg24
g10
(g11
S'\x00\x00\x00\x00\x00\x00\x00\x00'
tRp1654
sg26
g10
(g11
S'\xf9F\xbel\xbb\xcf?@'
tRp1655
sg28
g10
(g11
S'Y\x85\xb6E\xe4\x10\x92?'
tRp1656
sg30
I0
sg31
F0
sg32
g10
(g11
S'\xc9\xba\xcbL{I\xf5?'
tRp1657
sg34
g1
(g2
(I0
tS'b'
tRp1658
(I1
(I1
tg11
I00
S'~\xdb@}n\xf7}@'
tbsg36
g10
(g11
S'\xce\xa3Rjio\xf3?'
tRp1659
sg38
I0
sg39
I0
sg40
g1
(g2
(I0
tS'b'
tRp1660
(I1
(I1
tg11
I00
S'N\xbd\xaa\x00a\xb0\x0c@'
tbsg42
I0
sg43
I0
sg44
g10
(g11
S'\xfa\x11\xfe\xec&\x05\x00@'
tRp1661
sg46
g10
(g11
S'({\xcf\x85\xda\xc0\x97@'
tRp1662
sg48
g10
(g11
S'<\xd4\x90R\xa4\x13\xde?'
tRp1663
sg50
I0
sg51
g10
(g11
S'\xf7\x16\xa8\xf2\x84\xf1T@'
tRp1664
ssg53
S'29'
p1665
sg55
F-69.242900000000006
sg56
g10
(g11
S'\xc1\xca\xa1E\xb6s \xc0'
tRp1666
sg58
(dp1667
g38
I0
sg24
g1654
sg17
g1653
sg19
F0.25900000000000001
sg20
I0
sg21
I0
sg22
I0
sg23
I0
sg16
I0
sg26
g1655
sg28
g1656
sg31
F0
sg32
g1657
sg44
g1661
sg34
g1658
sg36
g1659
sg40
g1660
sg15
I1
sg39
I0
sg50
I0
sg42
I0
sg43
I0
sg30
I0
sg46
g1662
sg48
g1663
sg51
g1664
ssg60
I5
sg61
S'1'
sg62
F5.1484899999999998
sg63
S'4653'
p1668
sg65
g10
(g11
S'\xf8\x89\x03hJ+\xe9@'
tRp1669
sg67
g10
(g11
S'\x1b\xa1\x9f\xa9\x0e\xd7\xe7@'
tRp1670
sba(idata_structure
C_TSi
p1671
(dp1672
g9
g10
(g11
S'\xfa~j\xbct\x93\x88?'
tRp1673
sg13
(dp1674
g15
I0
sg16
I0
sg17
g10
(g11
S'\x00\x00\x00\x00\x00\x00\x00\x00'
tRp1675
sg19
F0.214
sg20
I0
sg21
I0
sg22
I0
sg23
I0
sg24
g10
(g11
S'\x00\x00\x00\x00\x00\x00\x00\x00'
tRp1676
sg26
g10
(g11
S"M\xa9'\xabq\x16%@"
tRp1677
sg28
g10
(g11
S'D\xb3@\xf4^\x0c\x8c?'
tRp1678
sg30
I0
sg31
F0
sg32
g10
(g11
S'f \xdcs\xd3\xfe\xf6?'
tRp1679
sg34
g1
(g2
(I0
tS'b'
tRp1680
(I1
(I1
tg11
I00
S'\xa3\xce\x07\xa4\x91\xd7z@'
tbsg36
g10
(g11
S'\xe6\x1a\xf7\x144\xc8\xf2?'
tRp1681
sg38
I0
sg39
I0
sg40
g1
(g2
(I0
tS'b'
tRp1682
(I1
(I1
tg11
I00
S'mB^P\xa1O\x08@'
tbsg42
I0
sg43
I0
sg44
g10
(g11
S'\xcf\x0c\x1a\x15g\xc1\x00@'
tRp1683
sg46
g10
(g11
S'\xba\x18z\xaaL\xc8d@'
tRp1684
sg48
g10
(g11
S'\xbc\x85x\x01\x96\x03\xde?'
tRp1685
sg50
I0
sg51
g10
(g11
S'e\x041\x11-\xf7T@'
tRp1686
ssg53
S'46'
p1687
sg55
F-69.150599999999997
sg56
g10
(g11
S'\xe9&1\x08\xac\x1c \xc0'
tRp1688
sg58
(dp1689
g38
I0
sg24
g1676
sg17
g1675
sg19
F0.214
sg20
I0
sg21
I0
sg22
I0
sg23
I0
sg16
I0
sg26
g1677
sg28
g1678
sg31
F0
sg32
g1679
sg44
g1683
sg34
g1680
sg36
g1681
sg40
g1682
sg15
I0
sg39
I0
sg50
I0
sg42
I0
sg43
I0
sg30
I0
sg46
g1684
sg48
g1685
sg51
g1686
ssg60
I5
sg61
S'1'
sg62
F5.1541600000000001
sg63
S'4655'
p1690
sg65
g10
(g11
S'\xf8\x89\x03hJ+\xe9@'
tRp1691
sg67
g10
(g11
S'Vb\x9e\x95\xef\xd6\xe7@'
tRp1692
sba(idata_structure
C_TSi
p1693
(dp1694
g9
g10
(g11
S'{\x14\xaeG\xe1zt?'
tRp1695
sg13
(dp1696
g15
I3
sg16
I0
sg17
g10
(g11
S'\x00\x00\x00\x00\x00\x00\x00\x00'
tRp1697
sg19
F0.23899999999999999
sg20
I0
sg21
I1
sg22
I0
sg23
I0
sg24
g10
(g11
S'\x00\x00\x00\x00\x00\x00\x00\x00'
tRp1698
sg26
g10
(g11
S"\xf6\xecDT\xad%'@"
tRp1699
sg28
g10
(g11
S'%f\td\x1b\x12|?'
tRp1700
sg30
I3
sg31
F0
sg32
g10
(g11
S'Wt\xb4m`\xc0\x00@'
tRp1701
sg34
g1
(g2
(I0
tS'b'
tRp1702
(I1
(I1
tg11
I00
S'\x84\xa2.\r\xe7\xd6b@'
tbsg36
g10
(g11
S"?'\xe3*\xa9\xf3\xf7?"
tRp1703
sg38
I0
sg39
I1
sg40
g1
(g2
(I0
tS'b'
tRp1704
(I1
(I1
tg11
I00
S'\n\x83+\xb2\x91\xaa\xff?'
tbsg42
I0
sg43
I0
sg44
g10
(g11
S'\xe0\x82N\x13\xed6\x03@'
tRp1705
sg46
g10
(g11
S'\x83\xa0\xc3\xc0\x85\x1ei@'
tRp1706
sg48
g10
(g11
S'\xcf\x0c\xac\xec\xc0\x03\xe0?'
tRp1707
sg50
I0
sg51
g10
(g11
S'\x9c\xdc}\xf9\x1c\xc1L@'
tRp1708
ssg53
S'37'
p1709
sg55
F-68.971599999999995
sg56
g10
(g11
S'B`\xe5\xd0"\x9b \xc0'
tRp1710
sg58
(dp1711
g38
I0
sg24
g1698
sg17
g1697
sg19
F0.23899999999999999
sg20
I0
sg21
I1
sg22
I0
sg23
I0
sg16
I0
sg26
g1699
sg28
g1700
sg31
F0
sg32
g1701
sg44
g1705
sg34
g1702
sg36
g1703
sg40
g1704
sg15
I3
sg39
I1
sg50
I0
sg42
I0
sg43
I0
sg30
I3
sg46
g1706
sg48
g1707
sg51
g1708
ssg60
I5
sg61
S'1'
sg62
F5.1495899999999999
sg63
S'4657'
p1712
sg65
g10
(g11
S'\xf8\x89\x03hJ+\xe9@'
tRp1713
sg67
g10
(g11
S'\xb1n\xbc\xbb\xb0\xe8\xe7@'
tRp1714
sba(idata_structure
C_TSi
p1715
(dp1716
g9
g10
(g11
S'\xfa~j\xbct\x93h?'
tRp1717
sg13
(dp1718
g15
I1
sg16
I0
sg17
g10
(g11
S'\x00\x00\x00\x00\x00\x00\x00\x00'
tRp1719
sg19
F0.19400000000000001
sg20
I0
sg21
I0
sg22
I0
sg23
I0
sg24
g10
(g11
S'\x00\x00\x00\x00\x00\x00\x00\x00'
tRp1720
sg26
g10
(g11
S'3\xee\x1fb\x97\x93Q@'
tRp1721
sg28
g10
(g11
S'\x97\xbaT\x9d`\x1f\x98?'
tRp1722
sg30
I1
sg31
F0
sg32
g10
(g11
S'\xb1\xa3\xe9\xaf\x86\xa4\xf6?'
tRp1723
sg34
g1
(g2
(I0
tS'b'
tRp1724
(I1
(I1
tg11
I00
S'j\xa4\xfb\\\xce\xcbf@'
tbsg36
g10
(g11
S"\xd9\x96mY-'\xf5?"
tRp1725
sg38
I0
sg39
I0
sg40
g1
(g2
(I0
tS'b'
tRp1726
(I1
(I1
tg11
I00
S'\xdfd\x80\xd5\xa4w\x11@'
tbsg42
I0
sg43
I0
sg44
g10
(g11
S'\xc6\x93c\xd7\xcd\xcd\x00@'
tRp1727
sg46
g10
(g11
S'\xab=\xa5Al\xaf\xb8@'
tRp1728
sg48
g10
(g11
S'\x863\x81.\xb7\xb6\xde?'
tRp1729
sg50
I0
sg51
g10
(g11
S'\xd3\x06 chAK@'
tRp1730
ssg53
S'63'
p1731
sg55
F-68.849599999999995
sg56
g10
(g11
S'L7\x89A`\xa5!\xc0'
tRp1732
sg58
(dp1733
g38
I0
sg24
g1720
sg17
g1719
sg19
F0.19400000000000001
sg20
I0
sg21
I0
sg22
I0
sg23
I0
sg16
I0
sg26
g1721
sg28
g1722
sg31
F0
sg32
g1723
sg44
g1727
sg34
g1724
sg36
g1725
sg40
g1726
sg15
I1
sg39
I0
sg50
I0
sg42
I0
sg43
I0
sg30
I1
sg46
g1728
sg48
g1729
sg51
g1730
ssg60
I5
sg61
S'1'
sg62
F5.1493799999999998
sg63
S'4659'
p1734
sg65
g10
(g11
S'\xf8\x89\x03hJ+\xe9@'
tRp1735
sg67
g10
(g11
S'\xb1n\xbc\xbb\xb0\xe8\xe7@'
tRp1736
sba(idata_structure
C_TSi
p1737
(dp1738
g9
g10
(g11
S'\xfc\xa9\xf1\xd2Mb`?'
tRp1739
sg13
(dp1740
g15
I1
sg16
I0
sg17
g10
(g11
S'\x00\x00\x00\x00\x00\x00\x00\x00'
tRp1741
sg19
F0.24299999999999999
sg20
I0
sg21
I0
sg22
I0
sg23
I0
sg24
g10
(g11
S'\x00\x00\x00\x00\x00\x00\x00\x00'
tRp1742
sg26
g10
(g11
S'U\xf6\x0b\xdfo\x9fY@'
tRp1743
sg28
g10
(g11
S'\xdds\xfd\xa4v\xb5\x95?'
tRp1744
sg30
I2
sg31
F0
sg32
g10
(g11
S'\xc9(\xf9\xc5P\x02\xe6?'
tRp1745
sg34
g1
(g2
(I0
tS'b'
tRp1746
(I1
(I1
tg11
I00
S'.\xe0?\xe2\xab\xc2i@'
tbsg36
g10
(g11
S'\x0c\xa8\xa4\xa9\xa1\x91\xf5?'
tRp1747
sg38
I0
sg39
I1
sg40
g1
(g2
(I0
tS'b'
tRp1748
(I1
(I1
tg11
I00
S"\xa1-\xae\xf1\x99\xb8'@"
tbsg42
I0
sg43
I0
sg44
g10
(g11
S'\xcc"\xc0\x01\xd7\xa5\xf4?'
tRp1749
sg46
g10
(g11
S'\xa0\xc7\x97h\x83o\xd1@'
tRp1750
sg48
g10
(g11
S'0+\xf1\xef\xa6\xa4\xde?'
tRp1751
sg50
I0
sg51
g10
(g11
S'\xdb\t\xdc\x9b\xcf\xa3K@'
tRp1752
ssg53
S'17'
p1753
sg55
F-68.740700000000004
sg56
g10
(g11
S'\xe9&1\x08\xac\xdc#\xc0'
tRp1754
sg58
(dp1755
g38
I0
sg24
g1742
sg17
g1741
sg19
F0.24299999999999999
sg20
I0
sg21
I0
sg22
I0
sg23
I0
sg16
I0
sg26
g1743
sg28
g1744
sg31
F0
sg32
g1745
sg44
g1749
sg34
g1746
sg36
g1747
sg40
g1748
sg15
I1
sg39
I1
sg50
I0
sg42
I0
sg43
I0
sg30
I2
sg46
g1750
sg48
g1751
sg51
g1752
ssg60
I5
sg61
S'1'
sg62
F5.1545300000000003
sg63
S'4661'
p1756
sg65
g10
(g11
S'\xf8\x89\x03hJ+\xe9@'
tRp1757
sg67
g10
(g11
S'\x90\xda\xc4I\x0e\xeb\xe7@'
tRp1758
sbatb.