cnumpy.core.multiarray
_reconstruct
p1
(cnumpy
ndarray
p2
(I0
tS'b'
tRp3
(I1
(I78
tcnumpy
dtype
p4
(S'O8'
I0
I1
tRp5
(I3
S'|'
NNNI-1
I-1
I63
tbI00
(lp6
(idata_structure
C_TSi
p7
(dp8
S'avg_err'
p9
cnumpy.core.multiarray
scalar
p10
(g4
(S'f8'
I0
I1
tRp11
(I3
S'<'
NNNI-1
I-1
I0
tbS'\xfc\xa9\xf1\xd2Mb`?'
tRp12
sS'scaled_var_index'
p13
(dp14
S'N_above_3'
p15
F-99
sS'N_below_7'
p16
F-99
sS'N_sum_below'
p17
F-99
sS'B-R'
p18
F0.219
sS'N_below'
p19
F-99
sS'N_below_4'
p20
I0
sS'N_below_5'
p21
F-99
sS'N_below_6'
p22
F-99
sS'N_sum_above'
p23
F-99
sS'stetson_L'
p24
g10
(g11
S'\xf4\x14\xbc\xc9\x96\xc5Z@'
tRp25
sS'Sigma'
p26
g10
(g11
S'E\xd0\xc2\xbe\x82\xa0\x9e?'
tRp27
sS'N_below_3'
p28
F-99
sS'Con'
p29
F0
sS'Eta_AC'
p30
F-99
sS'Period_SNR'
p31
g1
(g2
(I0
tS'b'
tRp32
(I1
(I1
tg11
I00
S'\xe2\x9f\xa3\xea$\x1dz@'
tbsS'CuSum'
p33
g10
(g11
S'\x82$\x17\xfd\xf2D\xf7?'
tRp34
sS'OnlySigma'
p35
g10
(g11
S'\xc3\xd8O\xf0}\xb5\xd2?'
tRp36
sS'N_above'
p37
F-99
sS'N_above_4'
p38
I0
sS'Period'
p39
g1
(g2
(I0
tS'b'
tRp40
(I1
(I1
tg11
I00
S'\xa9\xd4\xf1\xa8r\xdb$@'
tbsS'N_above_6'
p41
F-99
sS'N_above_7'
p42
F-99
sS'Eta'
p43
g10
(g11
S'\xdf\xeft*iG\xf2?'
tRp44
sS'welch_stetson'
p45
F-99
sS'Mag'
p46
g10
(g11
S'\xc3\xf5(\\\x8f\x82#\xc0'
tRp47
sS'stetson_K_AC'
p48
g10
(g11
S'\x1b\xf9\xa3\xee\x9co\xdf?'
tRp49
sS'N_above_5'
p50
F-99
sS'Sigma_AC'
p51
F-99
ssS'seq'
p52
S'15'
p53
sS'Dec_degree'
p54
F-69.389600000000002
sS'avg_mag'
p55
g10
(g11
S'\xc3\xf5(\\\x8f\x82#\xc0'
tRp56
sS'var_index'
p57
(dp58
g37
F-99
sg39
g40
sg23
F-99
sg17
F-99
sg18
F0.219
sg19
F-99
sg20
I0
sg21
F-99
sg22
F-99
sg16
F-99
sg24
g25
sg26
g27
sg29
F0
sg30
F-99
sg43
g44
sg31
g32
sg33
g34
sg35
g36
sg15
F-99
sg38
I0
sg50
F-99
sg41
F-99
sg42
F-99
sg28
F-99
sg45
F-99
sg46
g47
sg48
g49
sg51
F-99
ssS'label'
p59
I5
sS'field'
p60
S'1'
sS'RA_degree'
p61
F5.03111
sS'tile'
p62
S'3441'
p63
sS'end_mjd'
p64
g10
(g11
S'\xf8\x89\x03hJ+\xe9@'
tRp65
sS'start_mjd'
p66
g10
(g11
S'\x1b\xa1\x9f\xa9\x0e\xd7\xe7@'
tRp67
sba(idata_structure
C_TSi
p68
(dp69
g9
g10
(g11
S'{\x14\xaeG\xe1zt?'
tRp70
sg13
(dp71
g15
F-99
sg16
F-99
sg17
F-99
sg18
F0.16700000000000001
sg19
F-99
sg20
I0
sg21
F-99
sg22
F-99
sg23
F-99
sg24
g10
(g11
S'2\xc2\xb5\x84\x1a\x9bD@'
tRp72
sg26
g10
(g11
S'j\x05\x7f\x81\xc7\x0f\x9d?'
tRp73
sg28
F-99
sg29
F0
sg30
F-99
sg31
g1
(g2
(I0
tS'b'
tRp74
(I1
(I1
tg11
I00
S'\xb5\x1e\x949\x91\xce|@'
tbsg33
g10
(g11
S'\xbe\x9eK\x909[\xf0?'
tRp75
sg35
g10
(g11
S'NL7\x95)\x17\xce?'
tRp76
sg37
F-99
sg38
I0
sg39
g1
(g2
(I0
tS'b'
tRp77
(I1
(I1
tg11
I00
S'q\x1c\x04To\xe4\n@'
tbsg41
F-99
sg42
F-99
sg43
g10
(g11
S'\xcd\xf7\x1d\xc6Z\x08\x00@'
tRp78
sg45
F-99
sg46
g10
(g11
S'\xee|?5^z \xc0'
tRp79
sg48
g10
(g11
S'\x85;\xaa\xf9\x13\x19\xde?'
tRp80
sg50
F-99
sg51
F-99
ssg52
S'45'
p81
sg54
F-69.3887
sg55
g10
(g11
S'\xee|?5^z \xc0'
tRp82
sg57
(dp83
g37
F-99
sg39
g77
sg23
F-99
sg17
F-99
sg18
F0.16700000000000001
sg19
F-99
sg20
I0
sg21
F-99
sg22
F-99
sg16
F-99
sg24
g72
sg26
g73
sg29
F0
sg30
F-99
sg43
g78
sg31
g74
sg33
g75
sg35
g76
sg15
F-99
sg38
I0
sg50
F-99
sg41
F-99
sg42
F-99
sg28
F-99
sg45
F-99
sg46
g79
sg48
g80
sg51
F-99
ssg59
I5
sg60
S'1'
sg61
F5.0255200000000002
sg62
S'3441'
p84
sg64
g10
(g11
S'\xf8\x89\x03hJ+\xe9@'
tRp85
sg66
g10
(g11
S'\xf05\x04G\xef\xd6\xe7@'
tRp86
sba(idata_structure
C_TSi
p87
(dp88
g9
g10
(g11
S'\xfa~j\xbct\x93x?'
tRp89
sg13
(dp90
g15
F-99
sg16
F-99
sg17
F-99
sg18
F0.253
sg19
F-99
sg20
I0
sg21
F-99
sg22
F-99
sg23
F-99
sg24
g10
(g11
S'I\xa3\xe4~Po5@'
tRp91
sg26
g10
(g11
S'\xba\xf6\xe1\xcej-\x93?'
tRp92
sg28
F-99
sg29
F0
sg30
F-99
sg31
g1
(g2
(I0
tS'b'
tRp93
(I1
(I1
tg11
I00
S'b\x1e\xe4\x0b,\x1ds@'
tbsg33
g10
(g11
S'\xf2\xc8/75\x17\xf1?'
tRp94
sg35
g10
(g11
S'\xf7\x8e^a\xa0\xc4\xc3?'
tRp95
sg37
F-99
sg38
I0
sg39
g1
(g2
(I0
tS'b'
tRp96
(I1
(I1
tg11
I00
S'>Q\xd4\xa5\x88y\x0e@'
tbsg41
F-99
sg42
F-99
sg43
g10
(g11
S'K\xe9\xf3\xe2\xbba\xff?'
tRp97
sg45
F-99
sg46
g10
(g11
S'\x19\x04V\x0e-r \xc0'
tRp98
sg48
g10
(g11
S'\xd5\xa3\xa7*\xb7\xe0\xdd?'
tRp99
sg50
F-99
sg51
F-99
ssg52
S'26'
p100
sg54
F-69.289699999999996
sg55
g10
(g11
S'\x19\x04V\x0e-r \xc0'
tRp101
sg57
(dp102
g37
F-99
sg39
g96
sg23
F-99
sg17
F-99
sg18
F0.253
sg19
F-99
sg20
I0
sg21
F-99
sg22
F-99
sg16
F-99
sg24
g91
sg26
g92
sg29
F0
sg30
F-99
sg43
g97
sg31
g93
sg33
g94
sg35
g95
sg15
F-99
sg38
I0
sg50
F-99
sg41
F-99
sg42
F-99
sg28
F-99
sg45
F-99
sg46
g98
sg48
g99
sg51
F-99
ssg59
I5
sg60
S'1'
sg61
F5.0221900000000002
sg62
S'3443'
p103
sg64
g10
(g11
S'hur\x06\xab*\xe9@'
tRp104
sg66
g10
(g11
S'\xd2\xe1!\x8cM\xde\xe7@'
tRp105
sba(idata_structure
C_TSi
p106
(dp107
g9
g10
(g11
S'\xfa~j\xbct\x93x?'
tRp108
sg13
(dp109
g15
F-99
sg16
F-99
sg17
F-99
sg18
F0.22700000000000001
sg19
F-99
sg20
I0
sg21
F-99
sg22
F-99
sg23
F-99
sg24
g10
(g11
S'|\xbc\xe1\xcb\xc6\x905@'
tRp110
sg26
g10
(g11
S'"\xe3\x0f:C\xf5\x93?'
tRp111
sg28
F-99
sg29
F0
sg30
F-99
sg31
g1
(g2
(I0
tS'b'
tRp112
(I1
(I1
tg11
I00
S'\x1e\xa4?\xe5\xb0\x13s@'
tbsg33
g10
(g11
S' \xfch8\x99]\xf1?'
tRp113
sg35
g10
(g11
S'\xd6Co<\xfb/\xc4?'
tRp114
sg37
F-99
sg38
I1
sg39
g1
(g2
(I0
tS'b'
tRp115
(I1
(I1
tg11
I00
S'N8\x19\xc5_,\t@'
tbsg41
F-99
sg42
F-99
sg43
g10
(g11
S'"\xa8\x91\x1dx\x82\x00@'
tRp116
sg45
F-99
sg46
g10
(g11
S'\xc2\xf5(\\\x8f" \xc0'
tRp117
sg48
g10
(g11
S'\x1b\xbc\xa4R_\xb2\xdc?'
tRp118
sg50
F-99
sg51
F-99
ssg52
S'30'
p119
sg54
F-69.231999999999999
sg55
g10
(g11
S'\xc2\xf5(\\\x8f" \xc0'
tRp120
sg57
(dp121
g37
F-99
sg39
g115
sg23
F-99
sg17
F-99
sg18
F0.22700000000000001
sg19
F-99
sg20
I0
sg21
F-99
sg22
F-99
sg16
F-99
sg24
g110
sg26
g111
sg29
F0
sg30
F-99
sg43
g116
sg31
g112
sg33
g113
sg35
g114
sg15
F-99
sg38
I1
sg50
F-99
sg41
F-99
sg42
F-99
sg28
F-99
sg45
F-99
sg46
g117
sg48
g118
sg51
F-99
ssg59
I5
sg60
S'1'
sg61
F5.0314100000000002
sg62
S'3443'
p122
sg64
g10
(g11
S'\xf8\x89\x03hJ+\xe9@'
tRp123
sg66
g10
(g11
S'\x1b\xa1\x9f\xa9\x0e\xd7\xe7@'
tRp124
sba(idata_structure
C_TSi
p125
(dp126
g9
g10
(g11
S'y\xe9&1\x08\xac|?'
tRp127
sg13
(dp128
g15
F-99
sg16
F-99
sg17
F-99
sg18
F0.34399999999999997
sg19
F-99
sg20
I0
sg21
F-99
sg22
F-99
sg23
F-99
sg24
g10
(g11
S'Y9\x14\x82\xdfe=@'
tRp129
sg26
g10
(g11
S'Ug\xd9\x86\xf9]\x9d?'
tRp130
sg28
F-99
sg29
F0
sg30
F-99
sg31
g1
(g2
(I0
tS'b'
tRp131
(I1
(I1
tg11
I00
S'94E\x85\xa3su@'
tbsg33
g10
(g11
S'\xa4J\xde\x9f\xfb\xf2\xf2?'
tRp132
sg35
g10
(g11
S'_mx\xd5\xb3\x99\xcc?'
tRp133
sg37
F-99
sg38
I0
sg39
g1
(g2
(I0
tS'b'
tRp134
(I1
(I1
tg11
I00
S'\x8d\x8e\x15\xa4\xcdR\x0e@'
tbsg41
F-99
sg42
F-99
sg43
g10
(g11
S'\xd2\n\x04\xb0\xd9\x1e\xff?'
tRp135
sg45
F-99
sg46
g10
(g11
S'\xb0rh\x91\xed\xfc\x1e\xc0'
tRp136
sg48
g10
(g11
S'\xbc,\x01}\x13\t\xdc?'
tRp137
sg50
F-99
sg51
F-99
ssg52
S'36'
p138
sg54
F-68.997100000000003
sg55
g10
(g11
S'\xb0rh\x91\xed\xfc\x1e\xc0'
tRp139
sg57
(dp140
g37
F-99
sg39
g134
sg23
F-99
sg17
F-99
sg18
F0.34399999999999997
sg19
F-99
sg20
I0
sg21
F-99
sg22
F-99
sg16
F-99
sg24
g129
sg26
g130
sg29
F0
sg30
F-99
sg43
g135
sg31
g131
sg33
g132
sg35
g133
sg15
F-99
sg38
I0
sg50
F-99
sg41
F-99
sg42
F-99
sg28
F-99
sg45
F-99
sg46
g136
sg48
g137
sg51
F-99
ssg59
I5
sg60
S'1'
sg61
F5.0268100000000002
sg62
S'3447'
p141
sg64
g10
(g11
S'\xf8\x89\x03hJ+\xe9@'
tRp142
sg66
g10
(g11
S'wH1\xc0\x92\xd7\xe7@'
tRp143
sba(idata_structure
C_TSi
p144
(dp145
g9
g10
(g11
S'\xfc\xa9\xf1\xd2Mb`?'
tRp146
sg13
(dp147
g15
F-99
sg16
F-99
sg17
F-99
sg18
F0.39200000000000002
sg19
F-99
sg20
I4
sg21
F-99
sg22
F-99
sg23
F-99
sg24
g10
(g11
S'=\xb5\x8ep8\xabW@'
tRp148
sg26
g10
(g11
S't;h\x18\xe1\xdc\x9c?'
tRp149
sg28
F-99
sg29
F0
sg30
F-99
sg31
g1
(g2
(I0
tS'b'
tRp150
(I1
(I1
tg11
I00
S'\xe2K\xbc;\xea\xce\x81@'
tbsg33
g10
(g11
S'\xc3\xe3\xd5"Q%\xfe?'
tRp151
sg35
g10
(g11
S'\xadI\x80\xd8!\x9a\xd0?'
tRp152
sg37
F-99
sg38
I1
sg39
g1
(g2
(I0
tS'b'
tRp153
(I1
(I1
tg11
I00
S's\x12\xa9\x7f\x0f^(@'
tbsg41
F-99
sg42
F-99
sg43
g10
(g11
S'\x89\xfeF\x8a\xc5\x1b\xf1?'
tRp154
sg45
F-99
sg46
g10
(g11
S'H\xe1z\x14\xaeG"\xc0'
tRp155
sg48
g10
(g11
S'\xb8e\x96~BD\xe0?'
tRp156
sg50
F-99
sg51
F-99
ssg52
S'13'
p157
sg54
F-68.923100000000005
sg55
g10
(g11
S'H\xe1z\x14\xaeG"\xc0'
tRp158
sg57
(dp159
g37
F-99
sg39
g153
sg23
F-99
sg17
F-99
sg18
F0.39200000000000002
sg19
F-99
sg20
I4
sg21
F-99
sg22
F-99
sg16
F-99
sg24
g148
sg26
g149
sg29
F0
sg30
F-99
sg43
g154
sg31
g150
sg33
g151
sg35
g152
sg15
F-99
sg38
I1
sg50
F-99
sg41
F-99
sg42
F-99
sg28
F-99
sg45
F-99
sg46
g155
sg48
g156
sg51
F-99
ssg59
I5
sg60
S'1'
sg61
F5.0335999999999999
sg62
S'3448'
p160
sg64
g10
(g11
S'\xf8\x89\x03hJ+\xe9@'
tRp161
sg66
g10
(g11
S'\x18@\xf8P1\xd9\xe7@'
tRp162
sba(idata_structure
C_TSi
p163
(dp164
g9
g10
(g11
S'{\x14\xaeG\xe1z\x84?'
tRp165
sg13
(dp166
g15
F-99
sg16
F-99
sg17
F-99
sg18
F0.088999999999999996
sg19
F-99
sg20
I0
sg21
F-99
sg22
F-99
sg23
F-99
sg24
g10
(g11
S'\xf6\x0fi\x9b\xda\x861@'
tRp167
sg26
g10
(g11
S'>\xb1\x9df)\xf0\x98?'
tRp168
sg28
F-99
sg29
F0
sg30
F-99
sg31
g1
(g2
(I0
tS'b'
tRp169
(I1
(I1
tg11
I00
S'\x8bd\xf3\xe7-\x91\x82@'
tbsg33
g10
(g11
S'\xb5\xbb3\xf6\xe8@\xed?'
tRp170
sg35
g10
(g11
S'\xa9E\x11\xa9[l\xc7?'
tRp171
sg37
F-99
sg38
I0
sg39
g1
(g2
(I0
tS'b'
tRp172
(I1
(I1
tg11
I00
S'\xd2\xc3\xaf\x11T\xc3\xf1?'
tbsg41
F-99
sg42
F-99
sg43
g10
(g11
S'yo>/\xeb(\xfa?'
tRp173
sg45
F-99
sg46
g10
(g11
S'w\xbe\x9f\x1a/\xdd\x1d\xc0'
tRp174
sg48
g10
(g11
S':\xc2^\xb4W\x1a\xdf?'
tRp175
sg50
F-99
sg51
F-99
ssg52
S'62'
p176
sg54
F-68.846000000000004
sg55
g10
(g11
S'w\xbe\x9f\x1a/\xdd\x1d\xc0'
tRp177
sg57
(dp178
g37
F-99
sg39
g172
sg23
F-99
sg17
F-99
sg18
F0.088999999999999996
sg19
F-99
sg20
I0
sg21
F-99
sg22
F-99
sg16
F-99
sg24
g167
sg26
g168
sg29
F0
sg30
F-99
sg43
g173
sg31
g169
sg33
g170
sg35
g171
sg15
F-99
sg38
I0
sg50
F-99
sg41
F-99
sg42
F-99
sg28
F-99
sg45
F-99
sg46
g174
sg48
g175
sg51
F-99
ssg59
I5
sg60
S'1'
sg61
F5.0301499999999999
sg62
S'3449'
p179
sg64
g10
(g11
S'\xf8\x89\x03hJ+\xe9@'
tRp180
sg66
g10
(g11
S'wH1\xc0\x92\xd7\xe7@'
tRp181
sba(idata_structure
C_TSi
p182
(dp183
g9
g10
(g11
S'{\x14\xaeG\xe1z\x84?'
tRp184
sg13
(dp185
g15
F-99
sg16
F-99
sg17
F-99
sg18
F0.042999999999999997
sg19
F-99
sg20
I0
sg21
F-99
sg22
F-99
sg23
F-99
sg24
g10
(g11
S'\x91Krg\xf0w-@'
tRp186
sg26
g10
(g11
S'\xedi\xba\x0bj\x87\x9b?'
tRp187
sg28
F-99
sg29
F0
sg30
F-99
sg31
g1
(g2
(I0
tS'b'
tRp188
(I1
(I1
tg11
I00
S'\xa8G\x14Y\\\x16\x80@'
tbsg33
g10
(g11
S'h\xab\x84-8\xb4\xf3?'
tRp189
sg35
g10
(g11
S"j\xfb'\xd0\xfd\xa5\xc9?"
tRp190
sg37
F-99
sg38
I0
sg39
g1
(g2
(I0
tS'b'
tRp191
(I1
(I1
tg11
I00
S'muq\x04\x13\x9d\xf1?'
tbsg41
F-99
sg42
F-99
sg43
g10
(g11
S'+\xd7\xa1\xb8\xe6\xfa\xfb?'
tRp192
sg45
F-99
sg46
g10
(g11
S'\x83\xc0\xca\xa1E\xb6\x1d\xc0'
tRp193
sg48
g10
(g11
S'(6\xe3UEZ\xdd?'
tRp194
sg50
F-99
sg51
F-99
ssg52
S'33'
p195
sg54
F-68.728800000000007
sg55
g10
(g11
S'\x83\xc0\xca\xa1E\xb6\x1d\xc0'
tRp196
sg57
(dp197
g37
F-99
sg39
g191
sg23
F-99
sg17
F-99
sg18
F0.042999999999999997
sg19
F-99
sg20
I0
sg21
F-99
sg22
F-99
sg16
F-99
sg24
g186
sg26
g187
sg29
F0
sg30
F-99
sg43
g192
sg31
g188
sg33
g189
sg35
g190
sg15
F-99
sg38
I0
sg50
F-99
sg41
F-99
sg42
F-99
sg28
F-99
sg45
F-99
sg46
g193
sg48
g194
sg51
F-99
ssg59
I5
sg60
S'1'
sg61
F5.0273000000000003
sg62
S'3451'
p198
sg64
g10
(g11
S'\xf8\x89\x03hJ+\xe9@'
tRp199
sg66
g10
(g11
S'\x18@\xf8P1\xd9\xe7@'
tRp200
sba(idata_structure
C_TSi
p201
(dp202
g9
g10
(g11
S'\xfc\xa9\xf1\xd2Mbp?'
tRp203
sg13
(dp204
g15
F-99
sg16
F-99
sg17
F-99
sg18
F0.27100000000000002
sg19
F-99
sg20
I0
sg21
F-99
sg22
F-99
sg23
F-99
sg24
g10
(g11
S'\x88\xf2\xa3&\x01zA@'
tRp205
sg26
g10
(g11
S'G\x84\xc6\xee\tP\x96?'
tRp206
sg28
F-99
sg29
F0
sg30
F-99
sg31
g1
(g2
(I0
tS'b'
tRp207
(I1
(I1
tg11
I00
S'P\xfe\x8d\x03\xec\xecq@'
tbsg33
g10
(g11
S' \x8e\x9c5\x8d\xbc\xfa?'
tRp208
sg35
g10
(g11
S'\xe6B\xd5\xd2:5\xc7?'
tRp209
sg37
F-99
sg38
I0
sg39
g1
(g2
(I0
tS'b'
tRp210
(I1
(I1
tg11
I00
S'\xa4\x85\\\xa6gV\x12@'
tbsg41
F-99
sg42
F-99
sg43
g10
(g11
S'\xee\xc0\xbf1\xfa\n\xfd?'
tRp211
sg45
F-99
sg46
g10
(g11
S'\x10X9\xb4\xc8\x96 \xc0'
tRp212
sg48
g10
(g11
S'\x84a\xf9\xcf\xb2L\xdd?'
tRp213
sg50
F-99
sg51
F-99
ssg52
S'9'
sg54
F-68.731999999999999
sg55
g10
(g11
S'\x10X9\xb4\xc8\x96 \xc0'
tRp214
sg57
(dp215
g37
F-99
sg39
g210
sg23
F-99
sg17
F-99
sg18
F0.27100000000000002
sg19
F-99
sg20
I0
sg21
F-99
sg22
F-99
sg16
F-99
sg24
g205
sg26
g206
sg29
F0
sg30
F-99
sg43
g211
sg31
g207
sg33
g208
sg35
g209
sg15
F-99
sg38
I0
sg50
F-99
sg41
F-99
sg42
F-99
sg28
F-99
sg45
F-99
sg46
g212
sg48
g213
sg51
F-99
ssg59
I5
sg60
S'1'
sg61
F5.0281500000000001
sg62
S'3451'
p216
sg64
g10
(g11
S'\xf8\x89\x03hJ+\xe9@'
tRp217
sg66
g10
(g11
S'\x18@\xf8P1\xd9\xe7@'
tRp218
sba(idata_structure
C_TSi
p219
(dp220
g9
g10
(g11
S'\xfa~j\xbct\x93h?'
tRp221
sg13
(dp222
g15
F-99
sg16
F-99
sg17
F-99
sg18
F0.27900000000000003
sg19
F-99
sg20
I0
sg21
F-99
sg22
F-99
sg23
F-99
sg24
g10
(g11
S'WF\x8e\xf2\xef\x9dI@'
tRp223
sg26
g10
(g11
S'\xdb\xc7\xa9-6\x85\x93?'
tRp224
sg28
F-99
sg29
F0
sg30
F-99
sg31
g1
(g2
(I0
tS'b'
tRp225
(I1
(I1
tg11
I00
S'46\x0cJ~\xe8\x82@'
tbsg33
g10
(g11
S'\x06S\xcd|\x84\xeb\xf3?'
tRp226
sg35
g10
(g11
S'6)5b\xdbk\xc6?'
tRp227
sg37
F-99
sg38
I0
sg39
g1
(g2
(I0
tS'b'
tRp228
(I1
(I1
tg11
I00
S'\xc7\x91\x82\x94\xc5\xce @'
tbsg41
F-99
sg42
F-99
sg43
g10
(g11
S'pO\x9d\xee\xf1\xc5\xf4?'
tRp229
sg45
F-99
sg46
g10
(g11
S'\xaa\xf1\xd2Mbp"\xc0'
tRp230
sg48
g10
(g11
S'\xc0!\xffx~\xe8\xde?'
tRp231
sg50
F-99
sg51
F-99
ssg52
S'12'
p232
sg54
F-69.397099999999995
sg55
g10
(g11
S'\xaa\xf1\xd2Mbp"\xc0'
tRp233
sg57
(dp234
g37
F-99
sg39
g228
sg23
F-99
sg17
F-99
sg18
F0.27900000000000003
sg19
F-99
sg20
I0
sg21
F-99
sg22
F-99
sg16
F-99
sg24
g223
sg26
g224
sg29
F0
sg30
F-99
sg43
g229
sg31
g225
sg33
g226
sg35
g227
sg15
F-99
sg38
I0
sg50
F-99
sg41
F-99
sg42
F-99
sg28
F-99
sg45
F-99
sg46
g230
sg48
g231
sg51
F-99
ssg59
I5
sg60
S'1'
sg61
F5.0419200000000002
sg62
S'3562'
p235
sg64
g10
(g11
S'\xf8\x89\x03hJ+\xe9@'
tRp236
sg66
g10
(g11
S'\xf05\x04G\xef\xd6\xe7@'
tRp237
sba(idata_structure
C_TSi
p238
(dp239
g9
g10
(g11
S'\xfc\xa9\xf1\xd2Mbp?'
tRp240
sg13
(dp241
g15
F-99
sg16
F-99
sg17
F-99
sg18
F0.25800000000000001
sg19
F-99
sg20
I0
sg21
F-99
sg22
F-99
sg23
F-99
sg24
g10
(g11
S'\x9f\x0c\x18\xc6>\x05B@'
tRp242
sg26
g10
(g11
S'aX\xa5\xef>~\x95?'
tRp243
sg28
F-99
sg29
F0
sg30
F-99
sg31
g1
(g2
(I0
tS'b'
tRp244
(I1
(I1
tg11
I00
S'\xfa\xfe\xd5\xcdb\n|@'
tbsg33
g10
(g11
S'WC\xc6-G\xfa\xf2?'
tRp245
sg35
g10
(g11
S'\xb9\xf5,\xf0\xd3\x08\xc7?'
tRp246
sg37
F-99
sg38
I0
sg39
g1
(g2
(I0
tS'b'
tRp247
(I1
(I1
tg11
I00
S'\xdap\x84+\xf0\xfb\x13@'
tbsg41
F-99
sg42
F-99
sg43
g10
(g11
S'\xab\xf16(\x01\xf8\xfa?'
tRp248
sg45
F-99
sg46
g10
(g11
S"\x0e-\xb2\x9d\xef'!\xc0"
tRp249
sg48
g10
(g11
S'N<\xdd1\x1d\xa5\xdd?'
tRp250
sg50
F-99
sg51
F-99
ssg52
S'34'
p251
sg54
F-69.313999999999993
sg55
g10
(g11
S"\x0e-\xb2\x9d\xef'!\xc0"
tRp252
sg57
(dp253
g37
F-99
sg39
g247
sg23
F-99
sg17
F-99
sg18
F0.25800000000000001
sg19
F-99
sg20
I0
sg21
F-99
sg22
F-99
sg16
F-99
sg24
g242
sg26
g243
sg29
F0
sg30
F-99
sg43
g248
sg31
g244
sg33
g245
sg35
g246
sg15
F-99
sg38
I0
sg50
F-99
sg41
F-99
sg42
F-99
sg28
F-99
sg45
F-99
sg46
g249
sg48
g250
sg51
F-99
ssg59
I5
sg60
S'1'
sg61
F5.0425599999999999
sg62
S'3563'
p254
sg64
g10
(g11
S'\xf8\x89\x03hJ+\xe9@'
tRp255
sg66
g10
(g11
S'Vb\x9e\x95\xef\xd6\xe7@'
tRp256
sba(idata_structure
C_TSi
p257
(dp258
g9
g10
(g11
S'\xfa~j\xbct\x93x?'
tRp259
sg13
(dp260
g15
F-99
sg16
F-99
sg17
F-99
sg18
F0.23000000000000001
sg19
F-99
sg20
I0
sg21
F-99
sg22
F-99
sg23
F-99
sg24
g10
(g11
S'\xed\xb3#@\x12}@@'
tRp261
sg26
g10
(g11
S'r\x08\xf8\xa1\xe7\x0e\x9c?'
tRp262
sg28
F-99
sg29
F0.0033444816053511705
sg30
F-99
sg31
g1
(g2
(I0
tS'b'
tRp263
(I1
(I1
tg11
I00
S'p&\xce\x9e\xe84i@'
tbsg33
g10
(g11
S'z\xc0\xe8(`\xbc\xf5?'
tRp264
sg35
g10
(g11
S'V\xf0\xa9\xec\xad8\xcc?'
tRp265
sg37
F-99
sg38
I2
sg39
g1
(g2
(I0
tS'b'
tRp266
(I1
(I1
tg11
I00
S'\xb0\xd1eR"\xa3\x08@'
tbsg41
F-99
sg42
F-99
sg43
g10
(g11
S'&6\xb94\xfcY\xff?'
tRp267
sg45
F-99
sg46
g10
(g11
S'"\xdb\xf9~j\xfc\x1f\xc0'
tRp268
sg48
g10
(g11
S'\xae\xda%^!\xe4\xde?'
tRp269
sg50
F-99
sg51
F-99
ssg52
S'47'
p270
sg54
F-69.212100000000007
sg55
g10
(g11
S'"\xdb\xf9~j\xfc\x1f\xc0'
tRp271
sg57
(dp272
g37
F-99
sg39
g266
sg23
F-99
sg17
F-99
sg18
F0.23000000000000001
sg19
F-99
sg20
I0
sg21
F-99
sg22
F-99
sg16
F-99
sg24
g261
sg26
g262
sg29
F0.0033444816053511705
sg30
F-99
sg43
g267
sg31
g263
sg33
g264
sg35
g265
sg15
F-99
sg38
I2
sg50
F-99
sg41
F-99
sg42
F-99
sg28
F-99
sg45
F-99
sg46
g268
sg48
g269
sg51
F-99
ssg59
I5
sg60
S'1'
sg61
F5.04115
sg62
S'3565'
p273
sg64
g10
(g11
S'\xf8\x89\x03hJ+\xe9@'
tRp274
sg66
g10
(g11
S'\xd2\xe1!\x8cM\xde\xe7@'
tRp275
sba(idata_structure
C_TSi
p276
(dp277
g9
g10
(g11
S'\xfa~j\xbct\x93\x88?'
tRp278
sg13
(dp279
g15
F-99
sg16
F-99
sg17
F-99
sg18
F0.13200000000000001
sg19
F-99
sg20
I0
sg21
F-99
sg22
F-99
sg23
F-99
sg24
g10
(g11
S'\x8cV\x1d\x8bc\n\x1c@'
tRp280
sg26
g10
(g11
S'\xfc\xba\xa1\xf5$3\x8b?'
tRp281
sg28
F-99
sg29
F0
sg30
F-99
sg31
g1
(g2
(I0
tS'b'
tRp282
(I1
(I1
tg11
I00
S'\xc2\x15\xaaI\xbe\xcew@'
tbsg33
g10
(g11
S'\x82\x8c2\nW\x84\xf7?'
tRp283
sg35
g10
(g11
S'\x04\xd3=\x8eY\xae\xb9?'
tRp284
sg37
F-99
sg38
I0
sg39
g1
(g2
(I0
tS'b'
tRp285
(I1
(I1
tg11
I00
S'_\xa0\x9d\xf8\x0f?\xf4?'
tbsg41
F-99
sg42
F-99
sg43
g10
(g11
S'\x82*\xb8\x98\xd1K\x00@'
tRp286
sg45
F-99
sg46
g10
(g11
S'\x93\x18\x04V\x0e-\x1e\xc0'
tRp287
sg48
g10
(g11
S'\xa4!*\xc6\xf8\x05\xdd?'
tRp288
sg50
F-99
sg51
F-99
ssg52
S'87'
p289
sg54
F-69.212000000000003
sg55
g10
(g11
S'\x93\x18\x04V\x0e-\x1e\xc0'
tRp290
sg57
(dp291
g37
F-99
sg39
g285
sg23
F-99
sg17
F-99
sg18
F0.13200000000000001
sg19
F-99
sg20
I0
sg21
F-99
sg22
F-99
sg16
F-99
sg24
g280
sg26
g281
sg29
F0
sg30
F-99
sg43
g286
sg31
g282
sg33
g283
sg35
g284
sg15
F-99
sg38
I0
sg50
F-99
sg41
F-99
sg42
F-99
sg28
F-99
sg45
F-99
sg46
g287
sg48
g288
sg51
F-99
ssg59
I5
sg60
S'1'
sg61
F5.0381799999999997
sg62
S'3565'
p292
sg64
g10
(g11
S'\xf8\x89\x03hJ+\xe9@'
tRp293
sg66
g10
(g11
S'\x1b\xa1\x9f\xa9\x0e\xd7\xe7@'
tRp294
sba(idata_structure
C_TSi
p295
(dp296
g9
g10
(g11
S';\xdfO\x8d\x97n\x82?'
tRp297
sg13
(dp298
g15
F-99
sg16
F-99
sg17
F-99
sg18
F0.377
sg19
F-99
sg20
I0
sg21
F-99
sg22
F-99
sg23
F-99
sg24
g10
(g11
S'\x81\xb0\xd4\x0c)\x961@'
tRp299
sg26
g10
(g11
S'\xbb\x0f\xdeA`\xc1\x99?'
tRp300
sg28
F-99
sg29
F0
sg30
F-99
sg31
g1
(g2
(I0
tS'b'
tRp301
(I1
(I1
tg11
I00
S'8N\x89\xbc\x12\xa9w@'
tbsg33
g10
(g11
S'\x9eX\x07\xb8\x8c\xbc\xf7?'
tRp302
sg35
g10
(g11
S'\xfb:\xefX&\x1a\xc7?'
tRp303
sg37
F-99
sg38
I0
sg39
g1
(g2
(I0
tS'b'
tRp304
(I1
(I1
tg11
I00
S't\x1cY-Pg\x07@'
tbsg41
F-99
sg42
F-99
sg43
g10
(g11
S'"\xa8N\xfd\xe4\xd3\x00@'
tRp305
sg45
F-99
sg46
g10
(g11
S'R\xb8\x1e\x85\xeb\x91\x1c\xc0'
tRp306
sg48
g10
(g11
S'@U2\xf7\x1b\xaf\xdd?'
tRp307
sg50
F-99
sg51
F-99
ssg52
S'1010'
p308
sg54
F-69.0488
sg55
g10
(g11
S'R\xb8\x1e\x85\xeb\x91\x1c\xc0'
tRp309
sg57
(dp310
g37
F-99
sg39
g304
sg23
F-99
sg17
F-99
sg18
F0.377
sg19
F-99
sg20
I0
sg21
F-99
sg22
F-99
sg16
F-99
sg24
g299
sg26
g300
sg29
F0
sg30
F-99
sg43
g305
sg31
g301
sg33
g302
sg35
g303
sg15
F-99
sg38
I0
sg50
F-99
sg41
F-99
sg42
F-99
sg28
F-99
sg45
F-99
sg46
g306
sg48
g307
sg51
F-99
ssg59
I5
sg60
S'1'
sg61
F5.0349899999999996
sg62
S'3567'
p311
sg64
g10
(g11
S'\xf8\x89\x03hJ+\xe9@'
tRp312
sg66
g10
(g11
S'wH1\xc0\x92\xd7\xe7@'
tRp313
sba(idata_structure
C_TSi
p314
(dp315
g9
g10
(g11
S'{\x14\xaeG\xe1zt?'
tRp316
sg13
(dp317
g15
F-99
sg16
F-99
sg17
F-99
sg18
F0.14399999999999999
sg19
F-99
sg20
I0
sg21
F-99
sg22
F-99
sg23
F-99
sg24
g10
(g11
S'\xcc\x82\xb9Ch\xa95@'
tRp318
sg26
g10
(g11
S'\x97e\x97\xe2\x03N\x8f?'
tRp319
sg28
F-99
sg29
F0
sg30
F-99
sg31
g1
(g2
(I0
tS'b'
tRp320
(I1
(I1
tg11
I00
S'\xeb\xa3c\x8b \x12w@'
tbsg33
g10
(g11
S'\xec\x96\xb5/\x16Z\xf2?'
tRp321
sg35
g10
(g11
S'v`T\xdc\x8c7\xc0?'
tRp322
sg37
F-99
sg38
I0
sg39
g1
(g2
(I0
tS'b'
tRp323
(I1
(I1
tg11
I00
S'X\x087\x1e\xff\x84\x02@'
tbsg41
F-99
sg42
F-99
sg43
g10
(g11
S'\xa6\x07\x10~\x11\xe1\x00@'
tRp324
sg45
F-99
sg46
g10
(g11
S'\xf2\xd2Mb\x10\x98 \xc0'
tRp325
sg48
g10
(g11
S'\xb11\xae]\xe9\xbd\xdd?'
tRp326
sg50
F-99
sg51
F-99
ssg52
S'29'
p327
sg54
F-68.879499999999993
sg55
g10
(g11
S'\xf2\xd2Mb\x10\x98 \xc0'
tRp328
sg57
(dp329
g37
F-99
sg39
g323
sg23
F-99
sg17
F-99
sg18
F0.14399999999999999
sg19
F-99
sg20
I0
sg21
F-99
sg22
F-99
sg16
F-99
sg24
g318
sg26
g319
sg29
F0
sg30
F-99
sg43
g324
sg31
g320
sg33
g321
sg35
g322
sg15
F-99
sg38
I0
sg50
F-99
sg41
F-99
sg42
F-99
sg28
F-99
sg45
F-99
sg46
g325
sg48
g326
sg51
F-99
ssg59
I5
sg60
S'1'
sg61
F5.0456399999999997
sg62
S'3570'
p330
sg64
g10
(g11
S'\xf8\x89\x03hJ+\xe9@'
tRp331
sg66
g10
(g11
S'wH1\xc0\x92\xd7\xe7@'
tRp332
sba(idata_structure
C_TSi
p333
(dp334
g9
g10
(g11
S'\xfa~j\xbct\x93x?'
tRp335
sg13
(dp336
g15
F-99
sg16
F-99
sg17
F-99
sg18
F0.14899999999999999
sg19
F-99
sg20
I0
sg21
F-99
sg22
F-99
sg23
F-99
sg24
g10
(g11
S'\xceB\xd3\xb1;F;@'
tRp337
sg26
g10
(g11
S'-\n\x15=\xae\xca\x99?'
tRp338
sg28
F-99
sg29
F0.0044130626654898496
sg30
F-99
sg31
g1
(g2
(I0
tS'b'
tRp339
(I1
(I1
tg11
I00
S'\xde\xe7\xe9\xa5r6|@'
tbsg33
g10
(g11
S'P\xa2\xe2Z\x88\x16\xee?'
tRp340
sg35
g10
(g11
S'\x1b\x9dP\xb6\xf5\x93\xc9?'
tRp341
sg37
F-99
sg38
I0
sg39
g1
(g2
(I0
tS'b'
tRp342
(I1
(I1
tg11
I00
S'n\xa6\xb5\xf1^\x81\x05@'
tbsg41
F-99
sg42
F-99
sg43
g10
(g11
S'\x1f\x93\x9a1\xc9\x18\x01@'
tRp343
sg45
F-99
sg46
g10
(g11
S'\xaa\xf1\xd2Mb\x90\x1f\xc0'
tRp344
sg48
g10
(g11
S'\xc7\xc6)@\xdd\xca\xdc?'
tRp345
sg50
F-99
sg51
F-99
ssg52
S'32'
p346
sg54
F-68.873199999999997
sg55
g10
(g11
S'\xaa\xf1\xd2Mb\x90\x1f\xc0'
tRp347
sg57
(dp348
g37
F-99
sg39
g342
sg23
F-99
sg17
F-99
sg18
F0.14899999999999999
sg19
F-99
sg20
I0
sg21
F-99
sg22
F-99
sg16
F-99
sg24
g337
sg26
g338
sg29
F0.0044130626654898496
sg30
F-99
sg43
g343
sg31
g339
sg33
g340
sg35
g341
sg15
F-99
sg38
I0
sg50
F-99
sg41
F-99
sg42
F-99
sg28
F-99
sg45
F-99
sg46
g344
sg48
g345
sg51
F-99
ssg59
I5
sg60
S'1'
sg61
F5.0394800000000002
sg62
S'3570'
p349
sg64
g10
(g11
S'\xf8\x89\x03hJ+\xe9@'
tRp350
sg66
g10
(g11
S'wH1\xc0\x92\xd7\xe7@'
tRp351
sba(idata_structure
C_TSi
p352
(dp353
g9
g10
(g11
S'\xfc\xa9\xf1\xd2Mbp?'
tRp354
sg13
(dp355
g15
F-99
sg16
F-99
sg17
F-99
sg18
F0.112
sg19
F-99
sg20
I0
sg21
F-99
sg22
F-99
sg23
F-99
sg24
g10
(g11
S'p&&Q\x1b0*@'
tRp356
sg26
g10
(g11
S'\xe9\x13\xc5\xd5\xf7\xaa\x80?'
tRp357
sg28
F-99
sg29
F0
sg30
F-99
sg31
g1
(g2
(I0
tS'b'
tRp358
(I1
(I1
tg11
I00
S'V|>>`\xa3\x83@'
tbsg33
g10
(g11
S'\xfd\xa0\x88\xf6\xb1\x03\xf2?'
tRp359
sg35
g10
(g11
S'\x99\xd9s\tH\xb3\xb1?'
tRp360
sg37
F-99
sg38
I0
sg39
g1
(g2
(I0
tS'b'
tRp361
(I1
(I1
tg11
I00
S'W\xe8\xdd.W\xbf\x03@'
tbsg41
F-99
sg42
F-99
sg43
g10
(g11
S'JuIW \xb3\x00@'
tRp362
sg45
F-99
sg46
g10
(g11
S'{\x14\xaeG\xe1\xfa \xc0'
tRp363
sg48
g10
(g11
S'\xb6&c\x0e\xd6\x98\xdd?'
tRp364
sg50
F-99
sg51
F-99
ssg52
S'25'
p365
sg54
F-68.7744
sg55
g10
(g11
S'{\x14\xaeG\xe1\xfa \xc0'
tRp366
sg57
(dp367
g37
F-99
sg39
g361
sg23
F-99
sg17
F-99
sg18
F0.112
sg19
F-99
sg20
I0
sg21
F-99
sg22
F-99
sg16
F-99
sg24
g356
sg26
g357
sg29
F0
sg30
F-99
sg43
g362
sg31
g358
sg33
g359
sg35
g360
sg15
F-99
sg38
I0
sg50
F-99
sg41
F-99
sg42
F-99
sg28
F-99
sg45
F-99
sg46
g363
sg48
g364
sg51
F-99
ssg59
I5
sg60
S'1'
sg61
F5.0389699999999999
sg62
S'3571'
p368
sg64
g10
(g11
S'\xf8\x89\x03hJ+\xe9@'
tRp369
sg66
g10
(g11
S'wH1\xc0\x92\xd7\xe7@'
tRp370
sba(idata_structure
C_TSi
p371
(dp372
g9
g10
(g11
S'{\x14\xaeG\xe1zt?'
tRp373
sg13
(dp374
g15
F-99
sg16
F-99
sg17
F-99
sg18
F0.23200000000000001
sg19
F-99
sg20
I0
sg21
F-99
sg22
F-99
sg23
F-99
sg24
g10
(g11
S'\x13\xac\xc0\x8a\x9e\xf8C@'
tRp375
sg26
g10
(g11
S'-G\xb4\x0b\x13j\x9e?'
tRp376
sg28
F-99
sg29
F0.0079155672823219003
sg30
F-99
sg31
g1
(g2
(I0
tS'b'
tRp377
(I1
(I1
tg11
I00
S'\xfd;k\xe7D\x15x@'
tbsg33
g10
(g11
S'rqKH-\xfa\xec?'
tRp378
sg35
g10
(g11
S'un\xd1\xb4n\xc9\xce?'
tRp379
sg37
F-99
sg38
I0
sg39
g1
(g2
(I0
tS'b'
tRp380
(I1
(I1
tg11
I00
S'(\xbb\x18\xd5\xd1!\n@'
tbsg41
F-99
sg42
F-99
sg43
g10
(g11
S'\xbf\xa2\xb3\xdb\x1b\xb2\x00@'
tRp381
sg45
F-99
sg46
g10
(g11
S'7\x89A`\xe5\x10 \xc0'
tRp382
sg48
g10
(g11
S'\xd8K?\x819\xf0\xdd?'
tRp383
sg50
F-99
sg51
F-99
ssg52
S'31'
p384
sg54
F-68.783199999999994
sg55
g10
(g11
S'7\x89A`\xe5\x10 \xc0'
tRp385
sg57
(dp386
g37
F-99
sg39
g380
sg23
F-99
sg17
F-99
sg18
F0.23200000000000001
sg19
F-99
sg20
I0
sg21
F-99
sg22
F-99
sg16
F-99
sg24
g375
sg26
g376
sg29
F0.0079155672823219003
sg30
F-99
sg43
g381
sg31
g377
sg33
g378
sg35
g379
sg15
F-99
sg38
I0
sg50
F-99
sg41
F-99
sg42
F-99
sg28
F-99
sg45
F-99
sg46
g382
sg48
g383
sg51
F-99
ssg59
I5
sg60
S'1'
sg61
F5.0367699999999997
sg62
S'3571'
p387
sg64
g10
(g11
S'\xf8\x89\x03hJ+\xe9@'
tRp388
sg66
g10
(g11
S'wH1\xc0\x92\xd7\xe7@'
tRp389
sba(idata_structure
C_TSi
p390
(dp391
g9
g10
(g11
S'\xbaI\x0c\x02+\x87\x86?'
tRp392
sg13
(dp393
g15
F-99
sg16
F-99
sg17
F-99
sg18
F0.13100000000000001
sg19
F-99
sg20
I0
sg21
F-99
sg22
F-99
sg23
F-99
sg24
g10
(g11
S'\x10^nO4\xe5>@'
tRp394
sg26
g10
(g11
S'\x99b"q\xf0\xbc\xa7?'
tRp395
sg28
F-99
sg29
F0.0089285714285714281
sg30
F-99
sg31
g1
(g2
(I0
tS'b'
tRp396
(I1
(I1
tg11
I00
S'\x9eC\xdf\xc1V6x@'
tbsg33
g10
(g11
S'\xb0\xb5OD\x92\xcb\xe9?'
tRp397
sg35
g10
(g11
S'\xe1S\xca\xe3\xe4\xc7\xd7?'
tRp398
sg37
F-99
sg38
I0
sg39
g1
(g2
(I0
tS'b'
tRp399
(I1
(I1
tg11
I00
S"\xd3{'\xd3\xca\x97\x04@"
tbsg41
F-99
sg42
F-99
sg43
g10
(g11
S'A\xc3\xf17\x83\xa5\x00@'
tRp400
sg45
F-99
sg46
g10
(g11
S'\xd9\xce\xf7S\xe3\xa5\x1f\xc0'
tRp401
sg48
g10
(g11
S'\x0e\xf8\x0c\xf7B\x12\xdc?'
tRp402
sg50
F-99
sg51
F-99
ssg52
S'23'
p403
sg54
F-68.744900000000001
sg55
g10
(g11
S'\xd9\xce\xf7S\xe3\xa5\x1f\xc0'
tRp404
sg57
(dp405
g37
F-99
sg39
g399
sg23
F-99
sg17
F-99
sg18
F0.13100000000000001
sg19
F-99
sg20
I0
sg21
F-99
sg22
F-99
sg16
F-99
sg24
g394
sg26
g395
sg29
F0.0089285714285714281
sg30
F-99
sg43
g400
sg31
g396
sg33
g397
sg35
g398
sg15
F-99
sg38
I0
sg50
F-99
sg41
F-99
sg42
F-99
sg28
F-99
sg45
F-99
sg46
g401
sg48
g402
sg51
F-99
ssg59
I5
sg60
S'1'
sg61
F5.0434299999999999
sg62
S'3572'
p406
sg64
g10
(g11
S'\xf8\x89\x03hJ+\xe9@'
tRp407
sg66
g10
(g11
S'\xdf1<v/\xd7\xe7@'
tRp408
sba(idata_structure
C_TSi
p409
(dp410
g9
g10
(g11
S'\xfc\xa9\xf1\xd2Mbp?'
tRp411
sg13
(dp412
g15
F-99
sg16
F-99
sg17
F-99
sg18
F0.082000000000000003
sg19
F-99
sg20
I0
sg21
F-99
sg22
F-99
sg23
F-99
sg24
g10
(g11
S'+\x8c\xd6\xb4\x02\x94<@'
tRp413
sg26
g10
(g11
S'\x99\xecsb\xc1\xfa\x90?'
tRp414
sg28
F-99
sg29
F0
sg30
F-99
sg31
g1
(g2
(I0
tS'b'
tRp415
(I1
(I1
tg11
I00
S'q*b\xcb\x9c\xd6s@'
tbsg33
g10
(g11
S'\x14,"\xdeR\xe0\xeb?'
tRp416
sg35
g10
(g11
S'@#\xaf\x8f\x10\x0e\xc2?'
tRp417
sg37
F-99
sg38
I0
sg39
g1
(g2
(I0
tS'b'
tRp418
(I1
(I1
tg11
I00
S',\x06j\x1e38\x01@'
tbsg41
F-99
sg42
F-99
sg43
g10
(g11
S'\x85:\xa9Z\xe7\xec\x00@'
tRp419
sg45
F-99
sg46
g10
(g11
S'\xa8\xc6K7\x89\x01!\xc0'
tRp420
sg48
g10
(g11
S's\xab\x91\xee\xf5\xe6\xdd?'
tRp421
sg50
F-99
sg51
F-99
ssg52
S'25'
p422
sg54
F-69.425600000000003
sg55
g10
(g11
S'\xa8\xc6K7\x89\x01!\xc0'
tRp423
sg57
(dp424
g37
F-99
sg39
g418
sg23
F-99
sg17
F-99
sg18
F0.082000000000000003
sg19
F-99
sg20
I0
sg21
F-99
sg22
F-99
sg16
F-99
sg24
g413
sg26
g414
sg29
F0
sg30
F-99
sg43
g419
sg31
g415
sg33
g416
sg35
g417
sg15
F-99
sg38
I0
sg50
F-99
sg41
F-99
sg42
F-99
sg28
F-99
sg45
F-99
sg46
g420
sg48
g421
sg51
F-99
ssg59
I5
sg60
S'1'
sg61
F5.0476599999999996
sg62
S'3683'
p425
sg64
g10
(g11
S'\xf8\x89\x03hJ+\xe9@'
tRp426
sg66
g10
(g11
S'Vb\x9e\x95\xef\xd6\xe7@'
tRp427
sba(idata_structure
C_TSi
p428
(dp429
g9
g10
(g11
S'{\x14\xaeG\xe1zt?'
tRp430
sg13
(dp431
g15
F-99
sg16
F-99
sg17
F-99
sg18
F0.17000000000000001
sg19
F-99
sg20
I0
sg21
F-99
sg22
F-99
sg23
F-99
sg24
g10
(g11
S'\x96\x18\x86\x9dE\xabE@'
tRp432
sg26
g10
(g11
S';tb\xa0\xce1\xa1?'
tRp433
sg28
F-99
sg29
F0.0028735632183908046
sg30
F-99
sg31
g1
(g2
(I0
tS'b'
tRp434
(I1
(I1
tg11
I00
S'\xca\xd7Q\\\xdfwx@'
tbsg33
g10
(g11
S'\x04\x1eoE\xff>\xf3?'
tRp435
sg35
g10
(g11
S'0(F\x9b\x86\x97\xd1?'
tRp436
sg37
F-99
sg38
I0
sg39
g1
(g2
(I0
tS'b'
tRp437
(I1
(I1
tg11
I00
S'Lw\xc34\xf9\xba\x08@'
tbsg41
F-99
sg42
F-99
sg43
g10
(g11
S',\r\n\xb1\x8a\xcd\x00@'
tRp438
sg45
F-99
sg46
g10
(g11
S'T\xe3\xa5\x9b\xc4@ \xc0'
tRp439
sg48
g10
(g11
S'7\xa0\x9a4I-\xde?'
tRp440
sg50
F-99
sg51
F-99
ssg52
S'41'
p441
sg54
F-69.287000000000006
sg55
g10
(g11
S'T\xe3\xa5\x9b\xc4@ \xc0'
tRp442
sg57
(dp443
g37
F-99
sg39
g437
sg23
F-99
sg17
F-99
sg18
F0.17000000000000001
sg19
F-99
sg20
I0
sg21
F-99
sg22
F-99
sg16
F-99
sg24
g432
sg26
g433
sg29
F0.0028735632183908046
sg30
F-99
sg43
g438
sg31
g434
sg33
g435
sg35
g436
sg15
F-99
sg38
I0
sg50
F-99
sg41
F-99
sg42
F-99
sg28
F-99
sg45
F-99
sg46
g439
sg48
g440
sg51
F-99
ssg59
I5
sg60
S'1'
sg61
F5.0497100000000001
sg62
S'3685'
p444
sg64
g10
(g11
S'\xf8\x89\x03hJ+\xe9@'
tRp445
sg66
g10
(g11
S'\x95)\xe6 .\xd9\xe7@'
tRp446
sba(idata_structure
C_TSi
p447
(dp448
g9
g10
(g11
S'\xfc\xa9\xf1\xd2Mb`?'
tRp449
sg13
(dp450
g15
F-99
sg16
F-99
sg17
F-99
sg18
F0.35999999999999999
sg19
F-99
sg20
I1
sg21
F-99
sg22
F-99
sg23
F-99
sg24
g10
(g11
S'\xd0\x81\xa1%o\xfd`@'
tRp451
sg26
g10
(g11
S'\x9a\x1dP91A\xa1?'
tRp452
sg28
F-99
sg29
F0
sg30
F-99
sg31
g1
(g2
(I0
tS'b'
tRp453
(I1
(I1
tg11
I00
S'\xca\xfdf\x844\xe6w@'
tbsg33
g10
(g11
S'\xca1\x93\x07xq\xfc?'
tRp454
sg35
g10
(g11
S'\x9be1\x7f\xcc\xb3\xd5?'
tRp455
sg37
F-99
sg38
I0
sg39
g1
(g2
(I0
tS'b'
tRp456
(I1
(I1
tg11
I00
S'\r\xa0\x12|x\x8f1@'
tbsg41
F-99
sg42
F-99
sg43
g10
(g11
S'0\xafK\xd3Ja\xea?'
tRp457
sg45
F-99
sg46
g10
(g11
S'?5^\xbaI\x0c$\xc0'
tRp458
sg48
g10
(g11
S'\xafrteE\x85\xdf?'
tRp459
sg50
F-99
sg51
F-99
ssg52
S'7'
sg54
F-69.224000000000004
sg55
g10
(g11
S'?5^\xbaI\x0c$\xc0'
tRp460
sg57
(dp461
g37
F-99
sg39
g456
sg23
F-99
sg17
F-99
sg18
F0.35999999999999999
sg19
F-99
sg20
I1
sg21
F-99
sg22
F-99
sg16
F-99
sg24
g451
sg26
g452
sg29
F0
sg30
F-99
sg43
g457
sg31
g453
sg33
g454
sg35
g455
sg15
F-99
sg38
I0
sg50
F-99
sg41
F-99
sg42
F-99
sg28
F-99
sg45
F-99
sg46
g458
sg48
g459
sg51
F-99
ssg59
I5
sg60
S'1'
sg61
F5.0525900000000004
sg62
S'3686'
p462
sg64
g10
(g11
S'\xf8\x89\x03hJ+\xe9@'
tRp463
sg66
g10
(g11
S'\x1b\xa1\x9f\xa9\x0e\xd7\xe7@'
tRp464
sba(idata_structure
C_TSi
p465
(dp466
g9
g10
(g11
S'\xfc\xa9\xf1\xd2Mb`?'
tRp467
sg13
(dp468
g15
F-99
sg16
F-99
sg17
F-99
sg18
F0.34999999999999998
sg19
F-99
sg20
I0
sg21
F-99
sg22
F-99
sg23
F-99
sg24
g10
(g11
S'\xae\xba\xd5N\xd8\xc4F@'
tRp469
sg26
g10
(g11
S'\x8f\xe3\x03t:\x18\x8e?'
tRp470
sg28
F-99
sg29
F0
sg30
F-99
sg31
g1
(g2
(I0
tS'b'
tRp471
(I1
(I1
tg11
I00
S'\xa6\x91\xce\x80\xa7\xab\x80@'
tbsg33
g10
(g11
S'\xdfo>r\x13\xb7\xf5?'
tRp472
sg35
g10
(g11
S'\xc7}\xd6\x19\xf0y\xc1?'
tRp473
sg37
F-99
sg38
I0
sg39
g1
(g2
(I0
tS'b'
tRp474
(I1
(I1
tg11
I00
S'*\x8d:\x0bGf%@'
tbsg41
F-99
sg42
F-99
sg43
g10
(g11
S'\x0e\xf8+\x1eVt\xf1?'
tRp475
sg45
F-99
sg46
g10
(g11
S'\x0c\x02+\x87\x16\x99"\xc0'
tRp476
sg48
g10
(g11
S'\n\xdb"P\x9b\x1a\xdf?'
tRp477
sg50
F-99
sg51
F-99
ssg52
S'21'
p478
sg54
F-69.000799999999998
sg55
g10
(g11
S'\x0c\x02+\x87\x16\x99"\xc0'
tRp479
sg57
(dp480
g37
F-99
sg39
g474
sg23
F-99
sg17
F-99
sg18
F0.34999999999999998
sg19
F-99
sg20
I0
sg21
F-99
sg22
F-99
sg16
F-99
sg24
g469
sg26
g470
sg29
F0
sg30
F-99
sg43
g475
sg31
g471
sg33
g472
sg35
g473
sg15
F-99
sg38
I0
sg50
F-99
sg41
F-99
sg42
F-99
sg28
F-99
sg45
F-99
sg46
g476
sg48
g477
sg51
F-99
ssg59
I5
sg60
S'1'
sg61
F5.0566199999999997
sg62
S'3689'
p481
sg64
g10
(g11
S'\xf8\x89\x03hJ+\xe9@'
tRp482
sg66
g10
(g11
S'wH1\xc0\x92\xd7\xe7@'
tRp483
sba(idata_structure
C_TSi
p484
(dp485
g9
g10
(g11
S'\xfc\xa9\xf1\xd2Mbp?'
tRp486
sg13
(dp487
g15
F-99
sg16
F-99
sg17
F-99
sg18
F0.105
sg19
F-99
sg20
I0
sg21
F-99
sg22
F-99
sg23
F-99
sg24
g10
(g11
S'\x13\xd1$^\x920@@'
tRp488
sg26
g10
(g11
S'+\xe2G\xceX\xcb\x92?'
tRp489
sg28
F-99
sg29
F0
sg30
F-99
sg31
g1
(g2
(I0
tS'b'
tRp490
(I1
(I1
tg11
I00
S'\xf8\xcd\x1e\xbbr\x01\x84@'
tbsg33
g10
(g11
S'\x86xQm\xa1\x83\xfd?'
tRp491
sg35
g10
(g11
S'\xa7\xa2\xe9\xde2[\xc4?'
tRp492
sg37
F-99
sg38
I0
sg39
g1
(g2
(I0
tS'b'
tRp493
(I1
(I1
tg11
I00
S'\t`\xab[R5\x06@'
tbsg41
F-99
sg42
F-99
sg43
g10
(g11
S'\xf5\x0c\x19\x9a\xae\xbd\x00@'
tRp494
sg45
F-99
sg46
g10
(g11
S'\x8f\xc2\xf5(\\O!\xc0'
tRp495
sg48
g10
(g11
S'\xe3\x9aI\xbfRv\xde?'
tRp496
sg50
F-99
sg51
F-99
ssg52
S'19'
p497
sg54
F-68.861000000000004
sg55
g10
(g11
S'\x8f\xc2\xf5(\\O!\xc0'
tRp498
sg57
(dp499
g37
F-99
sg39
g493
sg23
F-99
sg17
F-99
sg18
F0.105
sg19
F-99
sg20
I0
sg21
F-99
sg22
F-99
sg16
F-99
sg24
g488
sg26
g489
sg29
F0
sg30
F-99
sg43
g494
sg31
g490
sg33
g491
sg35
g492
sg15
F-99
sg38
I0
sg50
F-99
sg41
F-99
sg42
F-99
sg28
F-99
sg45
F-99
sg46
g495
sg48
g496
sg51
F-99
ssg59
I5
sg60
S'1'
sg61
F5.0530299999999997
sg62
S'3691'
p500
sg64
g10
(g11
S'\xf8\x89\x03hJ+\xe9@'
tRp501
sg66
g10
(g11
S'wH1\xc0\x92\xd7\xe7@'
tRp502
sba(idata_structure
C_TSi
p503
(dp504
g9
g10
(g11
S'\x1b/\xdd$\x06\x81\x95?'
tRp505
sg13
(dp506
g15
F-99
sg16
F-99
sg17
F-99
sg18
F0.049000000000000002
sg19
F-99
sg20
I0
sg21
F-99
sg22
F-99
sg23
F-99
sg24
g10
(g11
S'\x14\xd8H\xc1\xac\xf1\x19@'
tRp507
sg26
g10
(g11
S'\x98\xf1\xb4\xa9\xdfo\x91?'
tRp508
sg28
F-99
sg29
F0
sg30
F-99
sg31
g1
(g2
(I0
tS'b'
tRp509
(I1
(I1
tg11
I00
S'x\xe5\x8d\x08\xdba|@'
tbsg33
g10
(g11
S'\xfa8\xb6<pm\xf7?'
tRp510
sg35
g10
(g11
S'\x96p\xa5_&\x18\xc2?'
tRp511
sg37
F-99
sg38
I0
sg39
g1
(g2
(I0
tS'b'
tRp512
(I1
(I1
tg11
I00
S'.\x80\xfa<\xb1\x9a\xfe?'
tbsg41
F-99
sg42
F-99
sg43
g10
(g11
S'%y\xf6\xd9Hy\x00@'
tRp513
sg45
F-99
sg46
g10
(g11
S'\xd7\xa3p=\n\x97 \xc0'
tRp514
sg48
g10
(g11
S'\x13\x8f\xd5~\xa7\x85\xdd?'
tRp515
sg50
F-99
sg51
F-99
ssg52
S'32'
p516
sg54
F-68.858500000000006
sg55
g10
(g11
S'\xd7\xa3p=\n\x97 \xc0'
tRp517
sg57
(dp518
g37
F-99
sg39
g512
sg23
F-99
sg17
F-99
sg18
F0.049000000000000002
sg19
F-99
sg20
I0
sg21
F-99
sg22
F-99
sg16
F-99
sg24
g507
sg26
g508
sg29
F0
sg30
F-99
sg43
g513
sg31
g509
sg33
g510
sg35
g511
sg15
F-99
sg38
I0
sg50
F-99
sg41
F-99
sg42
F-99
sg28
F-99
sg45
F-99
sg46
g514
sg48
g515
sg51
F-99
ssg59
I5
sg60
S'1'
sg61
F5.0567799999999998
sg62
S'3691'
p519
sg64
g10
(g11
S'\xf8\x89\x03hJ+\xe9@'
tRp520
sg66
g10
(g11
S'\x1b\xa1\x9f\xa9\x0e\xd7\xe7@'
tRp521
sba(idata_structure
C_TSi
p522
(dp523
g9
g10
(g11
S'\xfc\xa9\xf1\xd2Mbp?'
tRp524
sg13
(dp525
g15
F-99
sg16
F-99
sg17
F-99
sg18
F0.20599999999999999
sg19
F-99
sg20
I0
sg21
F-99
sg22
F-99
sg23
F-99
sg24
g10
(g11
S'\xecBo9\x9a\xe0B@'
tRp526
sg26
g10
(g11
S'G\xd2V\xee\n\xc7\x96?'
tRp527
sg28
F-99
sg29
F0.00088731144631765753
sg30
F-99
sg31
g1
(g2
(I0
tS'b'
tRp528
(I1
(I1
tg11
I00
S'\x07I\xaa\xd41\xe6|@'
tbsg33
g10
(g11
S'vh\xaa\xde\x9d\xa1\xf0?'
tRp529
sg35
g10
(g11
S'\x96\xed\xad\xa2\xbe\x9a\xc7?'
tRp530
sg37
F-99
sg38
I0
sg39
g1
(g2
(I0
tS'b'
tRp531
(I1
(I1
tg11
I00
S'q\xfb\xcb\x04M\x98\x08@'
tbsg41
F-99
sg42
F-99
sg43
g10
(g11
S'\xce\r\xed>\xf0<\x00@'
tRp532
sg45
F-99
sg46
g10
(g11
S'=\n\xd7\xa3p} \xc0'
tRp533
sg48
g10
(g11
S';IEU\xa3@\xdd?'
tRp534
sg50
F-99
sg51
F-99
ssg52
S'37'
p535
sg54
F-68.843500000000006
sg55
g10
(g11
S'=\n\xd7\xa3p} \xc0'
tRp536
sg57
(dp537
g37
F-99
sg39
g531
sg23
F-99
sg17
F-99
sg18
F0.20599999999999999
sg19
F-99
sg20
I0
sg21
F-99
sg22
F-99
sg16
F-99
sg24
g526
sg26
g527
sg29
F0.00088731144631765753
sg30
F-99
sg43
g532
sg31
g528
sg33
g529
sg35
g530
sg15
F-99
sg38
I0
sg50
F-99
sg41
F-99
sg42
F-99
sg28
F-99
sg45
F-99
sg46
g533
sg48
g534
sg51
F-99
ssg59
I5
sg60
S'1'
sg61
F5.04793
sg62
S'3691'
p538
sg64
g10
(g11
S'\xf8\x89\x03hJ+\xe9@'
tRp539
sg66
g10
(g11
S'wH1\xc0\x92\xd7\xe7@'
tRp540
sba(idata_structure
C_TSi
p541
(dp542
g9
g10
(g11
S'\xfc\xa9\xf1\xd2Mb`?'
tRp543
sg13
(dp544
g15
F-99
sg16
F-99
sg17
F-99
sg18
F0.32600000000000001
sg19
F-99
sg20
I1
sg21
F-99
sg22
F-99
sg23
F-99
sg24
g10
(g11
S'\xeb\xa8@\xf5}AW@'
tRp545
sg26
g10
(g11
S'\xc6`\xce\xde\x80\x16\xa0?'
tRp546
sg28
F-99
sg29
F0.0026064291920069507
sg30
F-99
sg31
g1
(g2
(I0
tS'b'
tRp547
(I1
(I1
tg11
I00
S'\x1a\xc3\x99_\x01+\x82@'
tbsg33
g10
(g11
S'&\x1aE\xecxn\xf4?'
tRp548
sg35
g10
(g11
S'\x86\x9du2\xa7a\xd3?'
tRp549
sg37
F-99
sg38
I0
sg39
g1
(g2
(I0
tS'b'
tRp550
(I1
(I1
tg11
I00
S'\x9fm\xa4\xf6\x02H)@'
tbsg41
F-99
sg42
F-99
sg43
g10
(g11
S'$\xb9\xe1,\x08b\xf0?'
tRp551
sg45
F-99
sg46
g10
(g11
S'\x93\x18\x04V\x0e-#\xc0'
tRp552
sg48
g10
(g11
S'\x9b\x92\xc4\xc4G9\xe0?'
tRp553
sg50
F-99
sg51
F-99
ssg52
S'16'
p554
sg54
F-68.772599999999997
sg55
g10
(g11
S'\x93\x18\x04V\x0e-#\xc0'
tRp555
sg57
(dp556
g37
F-99
sg39
g550
sg23
F-99
sg17
F-99
sg18
F0.32600000000000001
sg19
F-99
sg20
I1
sg21
F-99
sg22
F-99
sg16
F-99
sg24
g545
sg26
g546
sg29
F0.0026064291920069507
sg30
F-99
sg43
g551
sg31
g547
sg33
g548
sg35
g549
sg15
F-99
sg38
I0
sg50
F-99
sg41
F-99
sg42
F-99
sg28
F-99
sg45
F-99
sg46
g552
sg48
g553
sg51
F-99
ssg59
I5
sg60
S'1'
sg61
F5.05694
sg62
S'3692'
p557
sg64
g10
(g11
S'\xf8\x89\x03hJ+\xe9@'
tRp558
sg66
g10
(g11
S'wH1\xc0\x92\xd7\xe7@'
tRp559
sba(idata_structure
C_TSi
p560
(dp561
g9
g10
(g11
S'\xfa~j\xbct\x93h?'
tRp562
sg13
(dp563
g15
F-99
sg16
F-99
sg17
F-99
sg18
F0.29299999999999998
sg19
F-99
sg20
I1
sg21
F-99
sg22
F-99
sg23
F-99
sg24
g10
(g11
S'k"\x87\xfb\xc1\xafI@'
tRp564
sg26
g10
(g11
S'RKO\xada1\x99?'
tRp565
sg28
F-99
sg29
F0
sg30
F-99
sg31
g1
(g2
(I0
tS'b'
tRp566
(I1
(I1
tg11
I00
S'@EG\x90\x05\x0c{@'
tbsg33
g10
(g11
S'\xfa\xe6\xb4\xc6\x86\x16\xf1?'
tRp567
sg35
g10
(g11
S'\n\x88$&\x84\xf4\xcd?'
tRp568
sg37
F-99
sg38
I0
sg39
g1
(g2
(I0
tS'b'
tRp569
(I1
(I1
tg11
I00
S'\x83h\x8d\x11\xee\xbd%@'
tbsg41
F-99
sg42
F-99
sg43
g10
(g11
S'(\x7f>\xf5\xfe\xda\xf0?'
tRp570
sg45
F-99
sg46
g10
(g11
S'\xaa\xf1\xd2Mb\x10#\xc0'
tRp571
sg48
g10
(g11
S'\xd3\xf4\xfb9\x18R\xde?'
tRp572
sg50
F-99
sg51
F-99
ssg52
S'17'
p573
sg54
F-68.7851
sg55
g10
(g11
S'\xaa\xf1\xd2Mb\x10#\xc0'
tRp574
sg57
(dp575
g37
F-99
sg39
g569
sg23
F-99
sg17
F-99
sg18
F0.29299999999999998
sg19
F-99
sg20
I1
sg21
F-99
sg22
F-99
sg16
F-99
sg24
g564
sg26
g565
sg29
F0
sg30
F-99
sg43
g570
sg31
g566
sg33
g567
sg35
g568
sg15
F-99
sg38
I0
sg50
F-99
sg41
F-99
sg42
F-99
sg28
F-99
sg45
F-99
sg46
g571
sg48
g572
sg51
F-99
ssg59
I5
sg60
S'1'
sg61
F5.0476000000000001
sg62
S'3692'
p576
sg64
g10
(g11
S'\xf8\x89\x03hJ+\xe9@'
tRp577
sg66
g10
(g11
S'wH1\xc0\x92\xd7\xe7@'
tRp578
sba(idata_structure
C_TSi
p579
(dp580
g9
g10
(g11
S'\xfa~j\xbct\x93h?'
tRp581
sg13
(dp582
g15
F-99
sg16
F-99
sg17
F-99
sg18
F0.13100000000000001
sg19
F-99
sg20
I0
sg21
F-99
sg22
F-99
sg23
F-99
sg24
g10
(g11
S'=M\t-\xae\x86@@'
tRp583
sg26
g10
(g11
S'q\xbay\x12\x12{\x8c?'
tRp584
sg28
F-99
sg29
F0
sg30
F-99
sg31
g1
(g2
(I0
tS'b'
tRp585
(I1
(I1
tg11
I00
S"\x14\x8c'\xbfo\x02\x7f@"
tbsg33
g10
(g11
S'mH\x84\xc2\r.\xf7?'
tRp586
sg35
g10
(g11
S'\xaf\xfd\x89w}\x8b\xbf?'
tRp587
sg37
F-99
sg38
I0
sg39
g1
(g2
(I0
tS'b'
tRp588
(I1
(I1
tg11
I00
S'\xf0\x99\xb5\xd7\x99G\x0b@'
tbsg41
F-99
sg42
F-99
sg43
g10
(g11
S'\xdf\xe5q\x9b\xa5C\x00@'
tRp589
sg45
F-99
sg46
g10
(g11
S'\x93\x18\x04V\x0e\xad!\xc0'
tRp590
sg48
g10
(g11
S'\x13.\xdd\xbe\xf9\xb6\xdc?'
tRp591
sg50
F-99
sg51
F-99
ssg52
S'11'
p592
sg54
F-68.750600000000006
sg55
g10
(g11
S'\x93\x18\x04V\x0e\xad!\xc0'
tRp593
sg57
(dp594
g37
F-99
sg39
g588
sg23
F-99
sg17
F-99
sg18
F0.13100000000000001
sg19
F-99
sg20
I0
sg21
F-99
sg22
F-99
sg16
F-99
sg24
g583
sg26
g584
sg29
F0
sg30
F-99
sg43
g589
sg31
g585
sg33
g586
sg35
g587
sg15
F-99
sg38
I0
sg50
F-99
sg41
F-99
sg42
F-99
sg28
F-99
sg45
F-99
sg46
g590
sg48
g591
sg51
F-99
ssg59
I5
sg60
S'1'
sg61
F5.0552700000000002
sg62
S'3693'
p595
sg64
g10
(g11
S'\xf8\x89\x03hJ+\xe9@'
tRp596
sg66
g10
(g11
S'wH1\xc0\x92\xd7\xe7@'
tRp597
sba(idata_structure
C_TSi
p598
(dp599
g9
g10
(g11
S'\xfa~j\xbct\x93h?'
tRp600
sg13
(dp601
g15
F-99
sg16
F-99
sg17
F-99
sg18
F0.10299999999999999
sg19
F-99
sg20
I0
sg21
F-99
sg22
F-99
sg23
F-99
sg24
g10
(g11
S'L\xb8\x00\xa61ND@'
tRp602
sg26
g10
(g11
S'\xde\xe6\xec\x93\xf8\xad\x96?'
tRp603
sg28
F-99
sg29
F0.00091324200913242006
sg30
F-99
sg31
g1
(g2
(I0
tS'b'
tRp604
(I1
(I1
tg11
I00
S'\xeb\xeb \x8b\xab\xaaf@'
tbsg33
g10
(g11
S'\x13\x7f\x9a\x16[\xea\xf3?'
tRp605
sg35
g10
(g11
S'\xf6\xf5\xba%\xe8\xc8\xc8?'
tRp606
sg37
F-99
sg38
I0
sg39
g1
(g2
(I0
tS'b'
tRp607
(I1
(I1
tg11
I00
S'Z#\xa7\x81:]\x06@'
tbsg41
F-99
sg42
F-99
sg43
g10
(g11
S'6\xe5t\xd16\xa2\xff?'
tRp608
sg45
F-99
sg46
g10
(g11
S'33333s!\xc0'
tRp609
sg48
g10
(g11
S'Y\x1cn\r\x02?\xdd?'
tRp610
sg50
F-99
sg51
F-99
ssg52
S'26'
p611
sg54
F-69.427499999999995
sg55
g10
(g11
S'33333s!\xc0'
tRp612
sg57
(dp613
g37
F-99
sg39
g607
sg23
F-99
sg17
F-99
sg18
F0.10299999999999999
sg19
F-99
sg20
I0
sg21
F-99
sg22
F-99
sg16
F-99
sg24
g602
sg26
g603
sg29
F0.00091324200913242006
sg30
F-99
sg43
g608
sg31
g604
sg33
g605
sg35
g606
sg15
F-99
sg38
I0
sg50
F-99
sg41
F-99
sg42
F-99
sg28
F-99
sg45
F-99
sg46
g609
sg48
g610
sg51
F-99
ssg59
I5
sg60
S'1'
sg61
F5.0662599999999998
sg62
S'3804'
p614
sg64
g10
(g11
S'\xf8\x89\x03hJ+\xe9@'
tRp615
sg66
g10
(g11
S'Vb\x9e\x95\xef\xd6\xe7@'
tRp616
sba(idata_structure
C_TSi
p617
(dp618
g9
g10
(g11
S'y\xe9&1\x08\xac|?'
tRp619
sg13
(dp620
g15
F-99
sg16
F-99
sg17
F-99
sg18
F0.16600000000000001
sg19
F-99
sg20
I0
sg21
F-99
sg22
F-99
sg23
F-99
sg24
g10
(g11
S'h(\xdd\x9dy\x102@'
tRp621
sg26
g10
(g11
S'\xd4\xa6A/Q7\x93?'
tRp622
sg28
F-99
sg29
F0.0017543859649122807
sg30
F-99
sg31
g1
(g2
(I0
tS'b'
tRp623
(I1
(I1
tg11
I00
S'\x1e$\x13\xe8g\xf6r@'
tbsg33
g10
(g11
S'9B\xe6\x94\x05\xdb\xf4?'
tRp624
sg35
g10
(g11
S'\xf7\x8b4\xcd\x89t\xc3?'
tRp625
sg37
F-99
sg38
I0
sg39
g1
(g2
(I0
tS'b'
tRp626
(I1
(I1
tg11
I00
S'\xec\x93Rio\xf4\x07@'
tbsg41
F-99
sg42
F-99
sg43
g10
(g11
S'\x18\x05i\x17g\xf6\x00@'
tRp627
sg45
F-99
sg46
g10
(g11
S'\xde$\x06\x81\x95# \xc0'
tRp628
sg48
g10
(g11
S'Y\xe4\xca\x98`\xf0\xde?'
tRp629
sg50
F-99
sg51
F-99
ssg52
S'47'
p630
sg54
F-69.346699999999998
sg55
g10
(g11
S'\xde$\x06\x81\x95# \xc0'
tRp631
sg57
(dp632
g37
F-99
sg39
g626
sg23
F-99
sg17
F-99
sg18
F0.16600000000000001
sg19
F-99
sg20
I0
sg21
F-99
sg22
F-99
sg16
F-99
sg24
g621
sg26
g622
sg29
F0.0017543859649122807
sg30
F-99
sg43
g627
sg31
g623
sg33
g624
sg35
g625
sg15
F-99
sg38
I0
sg50
F-99
sg41
F-99
sg42
F-99
sg28
F-99
sg45
F-99
sg46
g628
sg48
g629
sg51
F-99
ssg59
I5
sg60
S'1'
sg61
F5.0641600000000002
sg62
S'3805'
p633
sg64
g10
(g11
S'\xf8\x89\x03hJ+\xe9@'
tRp634
sg66
g10
(g11
S'\x1b\xa1\x9f\xa9\x0e\xd7\xe7@'
tRp635
sba(idata_structure
C_TSi
p636
(dp637
g9
g10
(g11
S'{\x14\xaeG\xe1zt?'
tRp638
sg13
(dp639
g15
F-99
sg16
F-99
sg17
F-99
sg18
F0.105
sg19
F-99
sg20
I0
sg21
F-99
sg22
F-99
sg23
F-99
sg24
g10
(g11
S'\x99-\xcf\xfa\xf6\xe56@'
tRp640
sg26
g10
(g11
S'\xbf\x8f\xba^21\x92?'
tRp641
sg28
F-99
sg29
F0
sg30
F-99
sg31
g1
(g2
(I0
tS'b'
tRp642
(I1
(I1
tg11
I00
S'\xa5N\x83\x83\xc4N\x82@'
tbsg33
g10
(g11
S'm\xdc\x90\x15\x96\xe9\xeb?'
tRp643
sg35
g10
(g11
S'\xd9iJ5\x91\x0e\xc3?'
tRp644
sg37
F-99
sg38
I0
sg39
g1
(g2
(I0
tS'b'
tRp645
(I1
(I1
tg11
I00
S'\x17\xb9\xa6"\xd9\x8b\x01@'
tbsg41
F-99
sg42
F-99
sg43
g10
(g11
S'\xa6A\xd0\xebH\xc8\x00@'
tRp646
sg45
F-99
sg46
g10
(g11
S'j\xbct\x93\x18\xc4 \xc0'
tRp647
sg48
g10
(g11
S'\xf9b3k\x95!\xde?'
tRp648
sg50
F-99
sg51
F-99
ssg52
S'24'
p649
sg54
F-69.209599999999995
sg55
g10
(g11
S'j\xbct\x93\x18\xc4 \xc0'
tRp650
sg57
(dp651
g37
F-99
sg39
g645
sg23
F-99
sg17
F-99
sg18
F0.105
sg19
F-99
sg20
I0
sg21
F-99
sg22
F-99
sg16
F-99
sg24
g640
sg26
g641
sg29
F0
sg30
F-99
sg43
g646
sg31
g642
sg33
g643
sg35
g644
sg15
F-99
sg38
I0
sg50
F-99
sg41
F-99
sg42
F-99
sg28
F-99
sg45
F-99
sg46
g647
sg48
g648
sg51
F-99
ssg59
I5
sg60
S'1'
sg61
F5.0688700000000004
sg62
S'3807'
p652
sg64
g10
(g11
S'\xf8\x89\x03hJ+\xe9@'
tRp653
sg66
g10
(g11
S'\x1b\xa1\x9f\xa9\x0e\xd7\xe7@'
tRp654
sba(idata_structure
C_TSi
p655
(dp656
g9
g10
(g11
S'\xfc\xa9\xf1\xd2Mbp?'
tRp657
sg13
(dp658
g15
F-99
sg16
F-99
sg17
F-99
sg18
F0.40899999999999997
sg19
F-99
sg20
I0
sg21
F-99
sg22
F-99
sg23
F-99
sg24
g10
(g11
S'\xc9\xe7\xf7\xde\xa3\x03F@'
tRp659
sg26
g10
(g11
S'\xcd\xc6\xe6@:\x83\x98?'
tRp660
sg28
F-99
sg29
F0.0009727626459143969
sg30
F-99
sg31
g1
(g2
(I0
tS'b'
tRp661
(I1
(I1
tg11
I00
S'\xf3hBJ\x0c\x8cr@'
tbsg33
g10
(g11
S':\x1b\xe5\x08\t\xd1\xf3?'
tRp662
sg35
g10
(g11
S'=\x05\x85\xb1\xd9\xac\xca?'
tRp663
sg37
F-99
sg38
I0
sg39
g1
(g2
(I0
tS'b'
tRp664
(I1
(I1
tg11
I00
S'{G\xe4\x12\x9e\xbf @'
tbsg41
F-99
sg42
F-99
sg43
g10
(g11
S'\xa9G\x88\x7f\x7f\xd1\xf6?'
tRp665
sg45
F-99
sg46
g10
(g11
S'33333s!\xc0'
tRp666
sg48
g10
(g11
S'\x8aZ\xd9W\x98\xaf\xdd?'
tRp667
sg50
F-99
sg51
F-99
ssg52
S'12'
p668
sg54
F-69.103300000000004
sg55
g10
(g11
S'33333s!\xc0'
tRp669
sg57
(dp670
g37
F-99
sg39
g664
sg23
F-99
sg17
F-99
sg18
F0.40899999999999997
sg19
F-99
sg20
I0
sg21
F-99
sg22
F-99
sg16
F-99
sg24
g659
sg26
g660
sg29
F0.0009727626459143969
sg30
F-99
sg43
g665
sg31
g661
sg33
g662
sg35
g663
sg15
F-99
sg38
I0
sg50
F-99
sg41
F-99
sg42
F-99
sg28
F-99
sg45
F-99
sg46
g666
sg48
g667
sg51
F-99
ssg59
I5
sg60
S'1'
sg61
F5.07064
sg62
S'3808'
p671
sg64
g10
(g11
S'\xf8\x89\x03hJ+\xe9@'
tRp672
sg66
g10
(g11
S'\x95)\xe6 .\xd9\xe7@'
tRp673
sba(idata_structure
C_TSi
p674
(dp675
g9
g10
(g11
S'\xfa~j\xbct\x93h?'
tRp676
sg13
(dp677
g15
F-99
sg16
F-99
sg17
F-99
sg18
F0.36299999999999999
sg19
F-99
sg20
I1
sg21
F-99
sg22
F-99
sg23
F-99
sg24
g10
(g11
S'\xf6F`\xe79iS@'
tRp678
sg26
g10
(g11
S'\xe4\xfd\x8a\xb2\xd3\x06\x9e?'
tRp679
sg28
F-99
sg29
F0.00088495575221238937
sg30
F-99
sg31
g1
(g2
(I0
tS'b'
tRp680
(I1
(I1
tg11
I00
S'\x00\xd3\xe0\x0b\x8e(\x7f@'
tbsg33
g10
(g11
S'\xb6\x07\x0e\xc0\x89\x83\xf4?'
tRp681
sg35
g10
(g11
S'\x84\x02\xa4\x83\xd7\xac\xd1?'
tRp682
sg37
F-99
sg38
I3
sg39
g1
(g2
(I0
tS'b'
tRp683
(I1
(I1
tg11
I00
S'2\x8c\x00\xee\x89k(@'
tbsg41
F-99
sg42
F-99
sg43
g10
(g11
S'\xb8\x88\xc3\xea\xd7\xdb\xf0?'
tRp684
sg45
F-99
sg46
g10
(g11
S'l\xe7\xfb\xa9\xf1\xd2"\xc0'
tRp685
sg48
g10
(g11
S'\xcfsy\xfe\x1d\x86\xe0?'
tRp686
sg50
F-99
sg51
F-99
ssg52
S'937'
p687
sg54
F-69.062899999999999
sg55
g10
(g11
S'l\xe7\xfb\xa9\xf1\xd2"\xc0'
tRp688
sg57
(dp689
g37
F-99
sg39
g683
sg23
F-99
sg17
F-99
sg18
F0.36299999999999999
sg19
F-99
sg20
I1
sg21
F-99
sg22
F-99
sg16
F-99
sg24
g678
sg26
g679
sg29
F0.00088495575221238937
sg30
F-99
sg43
g684
sg31
g680
sg33
g681
sg35
g682
sg15
F-99
sg38
I3
sg50
F-99
sg41
F-99
sg42
F-99
sg28
F-99
sg45
F-99
sg46
g685
sg48
g686
sg51
F-99
ssg59
I5
sg60
S'1'
sg61
F5.0605900000000004
sg62
S'3809'
p690
sg64
g10
(g11
S'\xf8\x89\x03hJ+\xe9@'
tRp691
sg66
g10
(g11
S'Vb\x9e\x95\xef\xd6\xe7@'
tRp692
sba(idata_structure
C_TSi
p693
(dp694
g9
g10
(g11
S'\xfc\xa9\xf1\xd2Mb`?'
tRp695
sg13
(dp696
g15
F-99
sg16
F-99
sg17
F-99
sg18
F0.16600000000000001
sg19
F-99
sg20
I0
sg21
F-99
sg22
F-99
sg23
F-99
sg24
g10
(g11
S'\xc8\x0e1\xe1\x89\xe4L@'
tRp697
sg26
g10
(g11
S'\xf6\xd9\xb5\xc8\xba\xcc\x8f?'
tRp698
sg28
F-99
sg29
F0.0009025270758122744
sg30
F-99
sg31
g1
(g2
(I0
tS'b'
tRp699
(I1
(I1
tg11
I00
S'-\xda\xd2N\x92;w@'
tbsg33
g10
(g11
S'\xa2U\xbd\x06\x1eI\xeb?'
tRp700
sg35
g10
(g11
S'\x99&=>|\xd9\xc2?'
tRp701
sg37
F-99
sg38
I0
sg39
g1
(g2
(I0
tS'b'
tRp702
(I1
(I1
tg11
I00
S'{D\xb5\xab\xbc\x1f\x17@'
tbsg41
F-99
sg42
F-99
sg43
g10
(g11
S'\xa5I}\xfa\xdc)\xfb?'
tRp703
sg45
F-99
sg46
g10
(g11
S'\xb6\xf3\xfd\xd4x\xe9"\xc0'
tRp704
sg48
g10
(g11
S'\x94\x86\xde[\x1a\xcd\xdd?'
tRp705
sg50
F-99
sg51
F-99
ssg52
S'938'
p706
sg54
F-69.080699999999993
sg55
g10
(g11
S'\xb6\xf3\xfd\xd4x\xe9"\xc0'
tRp707
sg57
(dp708
g37
F-99
sg39
g702
sg23
F-99
sg17
F-99
sg18
F0.16600000000000001
sg19
F-99
sg20
I0
sg21
F-99
sg22
F-99
sg16
F-99
sg24
g697
sg26
g698
sg29
F0.0009025270758122744
sg30
F-99
sg43
g703
sg31
g699
sg33
g700
sg35
g701
sg15
F-99
sg38
I0
sg50
F-99
sg41
F-99
sg42
F-99
sg28
F-99
sg45
F-99
sg46
g704
sg48
g705
sg51
F-99
ssg59
I5
sg60
S'1'
sg61
F5.0681399999999996
sg62
S'3809'
p709
sg64
g10
(g11
S'\xf8\x89\x03hJ+\xe9@'
tRp710
sg66
g10
(g11
S'\xf05\x04G\xef\xd6\xe7@'
tRp711
sba(idata_structure
C_TSi
p712
(dp713
g9
g10
(g11
S'\xfc\xa9\xf1\xd2Mb`?'
tRp714
sg13
(dp715
g15
F-99
sg16
F-99
sg17
F-99
sg18
F0.36299999999999999
sg19
F-99
sg20
I1
sg21
F-99
sg22
F-99
sg23
F-99
sg24
g10
(g11
S'\xc8\xe1\x03#\x8b8`@'
tRp716
sg26
g10
(g11
S'm\xe0\xac\xb9\x0eI\xa3?'
tRp717
sg28
F-99
sg29
F0.0077787381158167671
sg30
F-99
sg31
g1
(g2
(I0
tS'b'
tRp718
(I1
(I1
tg11
I00
S'4\x1c\xf2\xd5\xde\t|@'
tbsg33
g10
(g11
S'=\xf4\x02V\xc9\xf2\xf2?'
tRp719
sg35
g10
(g11
S'\x19\xc0:#)]\xd8?'
tRp720
sg37
F-99
sg38
I0
sg39
g1
(g2
(I0
tS'b'
tRp721
(I1
(I1
tg11
I00
S'Z\xbc\n\xe6\xb3;1@'
tbsg41
F-99
sg42
F-99
sg43
g10
(g11
S'\x16O\x109\x94\x0c\xee?'
tRp722
sg45
F-99
sg46
g10
(g11
S'\xa0\x1a/\xdd$\x06$\xc0'
tRp723
sg48
g10
(g11
S'\xae\x99\xaa,4S\xde?'
tRp724
sg50
F-99
sg51
F-99
ssg52
S'11'
p725
sg54
F-69.026700000000005
sg55
g10
(g11
S'\xa0\x1a/\xdd$\x06$\xc0'
tRp726
sg57
(dp727
g37
F-99
sg39
g721
sg23
F-99
sg17
F-99
sg18
F0.36299999999999999
sg19
F-99
sg20
I1
sg21
F-99
sg22
F-99
sg16
F-99
sg24
g716
sg26
g717
sg29
F0.0077787381158167671
sg30
F-99
sg43
g722
sg31
g718
sg33
g719
sg35
g720
sg15
F-99
sg38
I0
sg50
F-99
sg41
F-99
sg42
F-99
sg28
F-99
sg45
F-99
sg46
g723
sg48
g724
sg51
F-99
ssg59
I5
sg60
S'1'
sg61
F5.0709900000000001
sg62
S'3810'
p728
sg64
g10
(g11
S'\xf8\x89\x03hJ+\xe9@'
tRp729
sg66
g10
(g11
S'\xf05\x04G\xef\xd6\xe7@'
tRp730
sba(idata_structure
C_TSi
p731
(dp732
g9
g10
(g11
S'\xfc\xa9\xf1\xd2Mb`?'
tRp733
sg13
(dp734
g15
F-99
sg16
F-99
sg17
F-99
sg18
F0.29299999999999998
sg19
F-99
sg20
I0
sg21
F-99
sg22
F-99
sg23
F-99
sg24
g10
(g11
S'\x1c\xcb\x82r8\xbaQ@'
tRp735
sg26
g10
(g11
S'T\x1d\xbe\xfa\xee\xdc\x96?'
tRp736
sg28
F-99
sg29
F0
sg30
F-99
sg31
g1
(g2
(I0
tS'b'
tRp737
(I1
(I1
tg11
I00
S'\x05!\x05|\x92\x06{@'
tbsg33
g10
(g11
S'F-\x15\xb9Fx\xf0?'
tRp738
sg35
g10
(g11
S'\xb7\x80\x94\xc5x\xe4\xca?'
tRp739
sg37
F-99
sg38
I0
sg39
g1
(g2
(I0
tS'b'
tRp740
(I1
(I1
tg11
I00
S'IBU\xf1\xebr#@'
tbsg41
F-99
sg42
F-99
sg43
g10
(g11
S'u\xf6\xda\xb3\t\x8a\xf3?'
tRp741
sg45
F-99
sg46
g10
(g11
S'L7\x89A`\xe5"\xc0'
tRp742
sg48
g10
(g11
S'\xd5\x02Q\x85\xdfI\xdf?'
tRp743
sg50
F-99
sg51
F-99
ssg52
S'15'
p744
sg54
F-68.840199999999996
sg55
g10
(g11
S'L7\x89A`\xe5"\xc0'
tRp745
sg57
(dp746
g37
F-99
sg39
g740
sg23
F-99
sg17
F-99
sg18
F0.29299999999999998
sg19
F-99
sg20
I0
sg21
F-99
sg22
F-99
sg16
F-99
sg24
g735
sg26
g736
sg29
F0
sg30
F-99
sg43
g741
sg31
g737
sg33
g738
sg35
g739
sg15
F-99
sg38
I0
sg50
F-99
sg41
F-99
sg42
F-99
sg28
F-99
sg45
F-99
sg46
g742
sg48
g743
sg51
F-99
ssg59
I5
sg60
S'1'
sg61
F5.0659200000000002
sg62
S'3812'
p747
sg64
g10
(g11
S'\xf8\x89\x03hJ+\xe9@'
tRp748
sg66
g10
(g11
S'\xf05\x04G\xef\xd6\xe7@'
tRp749
sba(idata_structure
C_TSi
p750
(dp751
g9
g10
(g11
S'\xfa~j\xbct\x93h?'
tRp752
sg13
(dp753
g15
F-99
sg16
F-99
sg17
F-99
sg18
F0.27800000000000002
sg19
F-99
sg20
I0
sg21
F-99
sg22
F-99
sg23
F-99
sg24
g10
(g11
S'm\x9b\xeb\xe5\xcf\xa6G@'
tRp754
sg26
g10
(g11
S'\xdd\r\xfd\x02\x89\xb9\x91?'
tRp755
sg28
F-99
sg29
F0
sg30
F-99
sg31
g1
(g2
(I0
tS'b'
tRp756
(I1
(I1
tg11
I00
S'\x17\x1a\xfb\xac\x04\x19\x82@'
tbsg33
g10
(g11
S'\xeffZ;;\xfb\xfe?'
tRp757
sg35
g10
(g11
S'\x1b\xdeDa\xc36\xc4?'
tRp758
sg37
F-99
sg38
I1
sg39
g1
(g2
(I0
tS'b'
tRp759
(I1
(I1
tg11
I00
S';j\xa3\xb7%c\x1f@'
tbsg41
F-99
sg42
F-99
sg43
g10
(g11
S'5d\x07\x17&^\xf5?'
tRp760
sg45
F-99
sg46
g10
(g11
S'\xa0\x1a/\xdd$F"\xc0'
tRp761
sg48
g10
(g11
S'\xc96\x99\x93C{\xde?'
tRp762
sg50
F-99
sg51
F-99
ssg52
S'18'
p763
sg54
F-68.883200000000002
sg55
g10
(g11
S'\xa0\x1a/\xdd$F"\xc0'
tRp764
sg57
(dp765
g37
F-99
sg39
g759
sg23
F-99
sg17
F-99
sg18
F0.27800000000000002
sg19
F-99
sg20
I0
sg21
F-99
sg22
F-99
sg16
F-99
sg24
g754
sg26
g755
sg29
F0
sg30
F-99
sg43
g760
sg31
g756
sg33
g757
sg35
g758
sg15
F-99
sg38
I1
sg50
F-99
sg41
F-99
sg42
F-99
sg28
F-99
sg45
F-99
sg46
g761
sg48
g762
sg51
F-99
ssg59
I5
sg60
S'1'
sg61
F5.0642699999999996
sg62
S'3812'
p766
sg64
g10
(g11
S'\xf8\x89\x03hJ+\xe9@'
tRp767
sg66
g10
(g11
S'\xf05\x04G\xef\xd6\xe7@'
tRp768
sba(idata_structure
C_TSi
p769
(dp770
g9
g10
(g11
S'\xfc\xa9\xf1\xd2Mb`?'
tRp771
sg13
(dp772
g15
F-99
sg16
F-99
sg17
F-99
sg18
F0.187
sg19
F-99
sg20
I0
sg21
F-99
sg22
F-99
sg23
F-99
sg24
g10
(g11
S'Dn\xdd\xba\xd8QF@'
tRp773
sg26
g10
(g11
S'\xdd\x12\xe5\xed\x14\x19\x88?'
tRp774
sg28
F-99
sg29
F0
sg30
F-99
sg31
g1
(g2
(I0
tS'b'
tRp775
(I1
(I1
tg11
I00
S'R\x80}\x1c\xc2\xd2y@'
tbsg33
g10
(g11
S'\xb3\x88\x84\xed\xbbd\xf1?'
tRp776
sg35
g10
(g11
S'\xc3.\x18l\xa7\xe2\xbc?'
tRp777
sg37
F-99
sg38
I0
sg39
g1
(g2
(I0
tS'b'
tRp778
(I1
(I1
tg11
I00
S'\x16r\x9f\xc1K\xad\x17@'
tbsg41
F-99
sg42
F-99
sg43
g10
(g11
S'\x87\t\xa4K\x85\x8a\xf8?'
tRp779
sg45
F-99
sg46
g10
(g11
S'y\xe9&1\x08,#\xc0'
tRp780
sg48
g10
(g11
S'\n\x88\xb1\x90\x1b\xc7\xdd?'
tRp781
sg50
F-99
sg51
F-99
ssg52
S'7'
sg54
F-68.8035
sg55
g10
(g11
S'y\xe9&1\x08,#\xc0'
tRp782
sg57
(dp783
g37
F-99
sg39
g778
sg23
F-99
sg17
F-99
sg18
F0.187
sg19
F-99
sg20
I0
sg21
F-99
sg22
F-99
sg16
F-99
sg24
g773
sg26
g774
sg29
F0
sg30
F-99
sg43
g779
sg31
g775
sg33
g776
sg35
g777
sg15
F-99
sg38
I0
sg50
F-99
sg41
F-99
sg42
F-99
sg28
F-99
sg45
F-99
sg46
g780
sg48
g781
sg51
F-99
ssg59
I5
sg60
S'1'
sg61
F5.0608199999999997
sg62
S'3813'
p784
sg64
g10
(g11
S'\xf8\x89\x03hJ+\xe9@'
tRp785
sg66
g10
(g11
S'\xf05\x04G\xef\xd6\xe7@'
tRp786
sba(idata_structure
C_TSi
p787
(dp788
g9
g10
(g11
S'{\x14\xaeG\xe1zt?'
tRp789
sg13
(dp790
g15
F-99
sg16
F-99
sg17
F-99
sg18
F0.14999999999999999
sg19
F-99
sg20
I0
sg21
F-99
sg22
F-99
sg23
F-99
sg24
g10
(g11
S'\x1c\xd3\xa4\xe3\xa8\x93I@'
tRp791
sg26
g10
(g11
S'\xc1\xdd\x93\xc8\xdd\x9b\xa1?'
tRp792
sg28
F-99
sg29
F0.0017730496453900709
sg30
F-99
sg31
g1
(g2
(I0
tS'b'
tRp793
(I1
(I1
tg11
I00
S'9\xf0\x8d\xd8\xd3h}@'
tbsg33
g10
(g11
S'\xc0\x13U\xd3K\x87\xe5?'
tRp794
sg35
g10
(g11
S'm\\\xcb\xfd\xfe{\xd2?'
tRp795
sg37
F-99
sg38
I0
sg39
g1
(g2
(I0
tS'b'
tRp796
(I1
(I1
tg11
I00
S'D\xb0\xb8\xfd\x1f\x99\x0b@'
tbsg41
F-99
sg42
F-99
sg43
g10
(g11
S'\x81\xbb\x8eW\xc0\x0c\x00@'
tRp797
sg45
F-99
sg46
g10
(g11
S'\n\xd7\xa3p=\xaa \xc0'
tRp798
sg48
g10
(g11
S'\xe8q\xabf\xdf\xed\xdc?'
tRp799
sg50
F-99
sg51
F-99
ssg52
S'29'
p800
sg54
F-69.271500000000003
sg55
g10
(g11
S'\n\xd7\xa3p=\xaa \xc0'
tRp801
sg57
(dp802
g37
F-99
sg39
g796
sg23
F-99
sg17
F-99
sg18
F0.14999999999999999
sg19
F-99
sg20
I0
sg21
F-99
sg22
F-99
sg16
F-99
sg24
g791
sg26
g792
sg29
F0.0017730496453900709
sg30
F-99
sg43
g797
sg31
g793
sg33
g794
sg35
g795
sg15
F-99
sg38
I0
sg50
F-99
sg41
F-99
sg42
F-99
sg28
F-99
sg45
F-99
sg46
g798
sg48
g799
sg51
F-99
ssg59
I5
sg60
S'1'
sg61
F5.0781299999999998
sg62
S'3927'
p803
sg64
g10
(g11
S'\xf8\x89\x03hJ+\xe9@'
tRp804
sg66
g10
(g11
S'\x1b\xa1\x9f\xa9\x0e\xd7\xe7@'
tRp805
sba(idata_structure
C_TSi
p806
(dp807
g9
g10
(g11
S'\xfa~j\xbct\x93x?'
tRp808
sg13
(dp809
g15
F-99
sg16
F-99
sg17
F-99
sg18
F0.19500000000000001
sg19
F-99
sg20
I0
sg21
F-99
sg22
F-99
sg23
F-99
sg24
g10
(g11
S'\xc4\xf3e\x06\xa3\xd3=@'
tRp810
sg26
g10
(g11
S'\xc3\x0f\xa6\x87\xf4\xbf\x99?'
tRp811
sg28
F-99
sg29
F0.0053859964093357273
sg30
F-99
sg31
g1
(g2
(I0
tS'b'
tRp812
(I1
(I1
tg11
I00
S'\xa07\xb5\xefD\xcfv@'
tbsg33
g10
(g11
S't\xd5R\x1f\xeci\xeb?'
tRp813
sg35
g10
(g11
S'\x04\xa8\xa1\xcej\x87\xca?'
tRp814
sg37
F-99
sg38
I0
sg39
g1
(g2
(I0
tS'b'
tRp815
(I1
(I1
tg11
I00
S't\xd0\x8d\xea\x8a\xad\t@'
tbsg41
F-99
sg42
F-99
sg43
g10
(g11
S' \xe7\x99\xfd\xa7\x9f\x00@'
tRp816
sg45
F-99
sg46
g10
(g11
S'\xc7K7\x89A` \xc0'
tRp817
sg48
g10
(g11
S'z6Y\x1eg\xa5\xdd?'
tRp818
sg50
F-99
sg51
F-99
ssg52
S'46'
p819
sg54
F-69.230800000000002
sg55
g10
(g11
S'\xc7K7\x89A` \xc0'
tRp820
sg57
(dp821
g37
F-99
sg39
g815
sg23
F-99
sg17
F-99
sg18
F0.19500000000000001
sg19
F-99
sg20
I0
sg21
F-99
sg22
F-99
sg16
F-99
sg24
g810
sg26
g811
sg29
F0.0053859964093357273
sg30
F-99
sg43
g816
sg31
g812
sg33
g813
sg35
g814
sg15
F-99
sg38
I0
sg50
F-99
sg41
F-99
sg42
F-99
sg28
F-99
sg45
F-99
sg46
g817
sg48
g818
sg51
F-99
ssg59
I5
sg60
S'1'
sg61
F5.0754000000000001
sg62
S'3927'
p822
sg64
g10
(g11
S'\xf8\x89\x03hJ+\xe9@'
tRp823
sg66
g10
(g11
S'\xee\xb2_\xf7\x0e\xd7\xe7@'
tRp824
sba(idata_structure
C_TSi
p825
(dp826
g9
g10
(g11
S'\n\xd7\xa3p=\n\xa7?'
tRp827
sg13
(dp828
g15
F-99
sg16
F-99
sg17
F-99
sg18
F0.249
sg19
F-99
sg20
I0
sg21
F-99
sg22
F-99
sg23
F-99
sg24
g10
(g11
S'\x11\x82\x81\x8c\xf9\xcf\x13@'
tRp829
sg26
g10
(g11
S'\xd1\xd2|\xdf\xdc=\x9a?'
tRp830
sg28
F-99
sg29
F0.0093141405588484331
sg30
F-99
sg31
g1
(g2
(I0
tS'b'
tRp831
(I1
(I1
tg11
I00
S'\xd5\x19\x12\x03\x13\x7fs@'
tbsg33
g10
(g11
S'\x7fEF*A7\xf1?'
tRp832
sg35
g10
(g11
S'\x10\x12\xf3\x85<r\xca?'
tRp833
sg37
F-99
sg38
I0
sg39
g1
(g2
(I0
tS'b'
tRp834
(I1
(I1
tg11
I00
S'\xc1#\xfb\x19\x9bV\x08@'
tbsg41
F-99
sg42
F-99
sg43
g10
(g11
S'B\x88x\xfdIX\x00@'
tRp835
sg45
F-99
sg46
g10
(g11
S'-\xb2\x9d\xef\xa7\x06 \xc0'
tRp836
sg48
g10
(g11
S'\x1a\x1c\xc9\xb0\x99\xa9\xdd?'
tRp837
sg50
F-99
sg51
F-99
ssg52
S'58'
p838
sg54
F-69.253100000000003
sg55
g10
(g11
S'-\xb2\x9d\xef\xa7\x06 \xc0'
tRp839
sg57
(dp840
g37
F-99
sg39
g834
sg23
F-99
sg17
F-99
sg18
F0.249
sg19
F-99
sg20
I0
sg21
F-99
sg22
F-99
sg16
F-99
sg24
g829
sg26
g830
sg29
F0.0093141405588484331
sg30
F-99
sg43
g835
sg31
g831
sg33
g832
sg35
g833
sg15
F-99
sg38
I0
sg50
F-99
sg41
F-99
sg42
F-99
sg28
F-99
sg45
F-99
sg46
g836
sg48
g837
sg51
F-99
ssg59
I5
sg60
S'1'
sg61
F5.0763199999999999
sg62
S'3927'
p841
sg64
g10
(g11
S'\xf8\x89\x03hJ+\xe9@'
tRp842
sg66
g10
(g11
S'\xf05\x04G\xef\xd6\xe7@'
tRp843
sba(idata_structure
C_TSi
p844
(dp845
g9
g10
(g11
S'\xfa~j\xbct\x93h?'
tRp846
sg13
(dp847
g15
F-99
sg16
F-99
sg17
F-99
sg18
F0.10100000000000001
sg19
F-99
sg20
I0
sg21
F-99
sg22
F-99
sg23
F-99
sg24
g10
(g11
S'/.\xaatod>@'
tRp848
sg26
g10
(g11
S'^\xc3\x90\x93\x8a\x13\x8e?'
tRp849
sg28
F-99
sg29
F0
sg30
F-99
sg31
g1
(g2
(I0
tS'b'
tRp850
(I1
(I1
tg11
I00
S'\xfd\xa5\xc6\xfa\xca\xf7x@'
tbsg33
g10
(g11
S'lLc\xc7\xba\xfe\xf8?'
tRp851
sg35
g10
(g11
S't\x10\xe4\x06\xc3\xac\xc0?'
tRp852
sg37
F-99
sg38
I0
sg39
g1
(g2
(I0
tS'b'
tRp853
(I1
(I1
tg11
I00
S'9& \xb4\xfd\xe9\x08@'
tbsg41
F-99
sg42
F-99
sg43
g10
(g11
S'}\xa4i\xf5l\x85\x00@'
tRp854
sg45
F-99
sg46
g10
(g11
S'\x14\xaeG\xe1z\xb4!\xc0'
tRp855
sg48
g10
(g11
S'\x12\xe78\xd0Y\xe6\xdc?'
tRp856
sg50
F-99
sg51
F-99
ssg52
S'26'
p857
sg54
F-69.2136
sg55
g10
(g11
S'\x14\xaeG\xe1z\xb4!\xc0'
tRp858
sg57
(dp859
g37
F-99
sg39
g853
sg23
F-99
sg17
F-99
sg18
F0.10100000000000001
sg19
F-99
sg20
I0
sg21
F-99
sg22
F-99
sg16
F-99
sg24
g848
sg26
g849
sg29
F0
sg30
F-99
sg43
g854
sg31
g850
sg33
g851
sg35
g852
sg15
F-99
sg38
I0
sg50
F-99
sg41
F-99
sg42
F-99
sg28
F-99
sg45
F-99
sg46
g855
sg48
g856
sg51
F-99
ssg59
I5
sg60
S'1'
sg61
F5.0754400000000004
sg62
S'3928'
p860
sg64
g10
(g11
S'\xf8\x89\x03hJ+\xe9@'
tRp861
sg66
g10
(g11
S'\xee\xb2_\xf7\x0e\xd7\xe7@'
tRp862
sba(idata_structure
C_TSi
p863
(dp864
g9
g10
(g11
S'9\xb4\xc8v\xbe\x9f\x8a?'
tRp865
sg13
(dp866
g15
F-99
sg16
F-99
sg17
F-99
sg18
F0.441
sg19
F-99
sg20
I0
sg21
F-99
sg22
F-99
sg23
F-99
sg24
g10
(g11
S'fA\xd6z\x93\xae0@'
tRp867
sg26
g10
(g11
S'\xff\xe4A\xf9\x15\x9d\xa1?'
tRp868
sg28
F-99
sg29
F0.00089525514771709937
sg30
F-99
sg31
g1
(g2
(I0
tS'b'
tRp869
(I1
(I1
tg11
I00
S'\x9bm\\\x15\x8b\xa5~@'
tbsg33
g10
(g11
S'2z\xf4\x97\xdf9\xf3?'
tRp870
sg35
g10
(g11
S'\xe9\x8f\xdb\x01\xb3J\xcf?'
tRp871
sg37
F-99
sg38
I0
sg39
g1
(g2
(I0
tS'b'
tRp872
(I1
(I1
tg11
I00
S'\xd4r\x8c/\xa68\x08@'
tbsg41
F-99
sg42
F-99
sg43
g10
(g11
S'\xefe`Q\xa0B\x00@'
tRp873
sg45
F-99
sg46
g10
(g11
S'Nb\x10X94\x1c\xc0'
tRp874
sg48
g10
(g11
S'\xadk[=\x9a;\xdc?'
tRp875
sg50
F-99
sg51
F-99
ssg52
S'107'
p876
sg54
F-69.127399999999994
sg55
g10
(g11
S'Nb\x10X94\x1c\xc0'
tRp877
sg57
(dp878
g37
F-99
sg39
g872
sg23
F-99
sg17
F-99
sg18
F0.441
sg19
F-99
sg20
I0
sg21
F-99
sg22
F-99
sg16
F-99
sg24
g867
sg26
g868
sg29
F0.00089525514771709937
sg30
F-99
sg43
g873
sg31
g869
sg33
g870
sg35
g871
sg15
F-99
sg38
I0
sg50
F-99
sg41
F-99
sg42
F-99
sg28
F-99
sg45
F-99
sg46
g874
sg48
g875
sg51
F-99
ssg59
I5
sg60
S'1'
sg61
F5.0736999999999997
sg62
S'3929'
p879
sg64
g10
(g11
S'\xf8\x89\x03hJ+\xe9@'
tRp880
sg66
g10
(g11
S'\x1b\xa1\x9f\xa9\x0e\xd7\xe7@'
tRp881
sba(idata_structure
C_TSi
p882
(dp883
g9
g10
(g11
S'\xfa~j\xbct\x93x?'
tRp884
sg13
(dp885
g15
F-99
sg16
F-99
sg17
F-99
sg18
F0.27300000000000002
sg19
F-99
sg20
I0
sg21
F-99
sg22
F-99
sg23
F-99
sg24
g10
(g11
S'\xd3\x92\xef\xf4\xe3<7@'
tRp886
sg26
g10
(g11
S'\x13\xc3EN=\xfa\x96?'
tRp887
sg28
F-99
sg29
F0
sg30
F-99
sg31
g1
(g2
(I0
tS'b'
tRp888
(I1
(I1
tg11
I00
S'\x1c5\xab\x06nR\x81@'
tbsg33
g10
(g11
S'\xcb,J\xf6\xd2#\xec?'
tRp889
sg35
g10
(g11
S'\xa3c4g{.\xc6?'
tRp890
sg37
F-99
sg38
I0
sg39
g1
(g2
(I0
tS'b'
tRp891
(I1
(I1
tg11
I00
S'\x8c\x06^\xf7\n4\n@'
tbsg41
F-99
sg42
F-99
sg43
g10
(g11
S'\xb5\xfdw3\x8d\x17\x00@'
tRp892
sg45
F-99
sg46
g10
(g11
S'}?5^\xba\xc9\x1e\xc0'
tRp893
sg48
g10
(g11
S'\xb7*\xbc\rLD\xdd?'
tRp894
sg50
F-99
sg51
F-99
ssg52
S'64'
p895
sg54
F-68.8767
sg55
g10
(g11
S'}?5^\xba\xc9\x1e\xc0'
tRp896
sg57
(dp897
g37
F-99
sg39
g891
sg23
F-99
sg17
F-99
sg18
F0.27300000000000002
sg19
F-99
sg20
I0
sg21
F-99
sg22
F-99
sg16
F-99
sg24
g886
sg26
g887
sg29
F0
sg30
F-99
sg43
g892
sg31
g888
sg33
g889
sg35
g890
sg15
F-99
sg38
I0
sg50
F-99
sg41
F-99
sg42
F-99
sg28
F-99
sg45
F-99
sg46
g893
sg48
g894
sg51
F-99
ssg59
I5
sg60
S'1'
sg61
F5.0764100000000001
sg62
S'3933'
p898
sg64
g10
(g11
S'\xf8\x89\x03hJ+\xe9@'
tRp899
sg66
g10
(g11
S'\x1b\xa1\x9f\xa9\x0e\xd7\xe7@'
tRp900
sba(idata_structure
C_TSi
p901
(dp902
g9
g10
(g11
S'{\x14\xaeG\xe1zt?'
tRp903
sg13
(dp904
g15
F-99
sg16
F-99
sg17
F-99
sg18
F0.20100000000000001
sg19
F-99
sg20
I0
sg21
F-99
sg22
F-99
sg23
F-99
sg24
g10
(g11
S'=\x02\x9e\x8a}\xf7A@'
tRp905
sg26
g10
(g11
S'\x1e\xc0\xc3ML\xd9\x9c?'
tRp906
sg28
F-99
sg29
F0.0018331805682859762
sg30
F-99
sg31
g1
(g2
(I0
tS'b'
tRp907
(I1
(I1
tg11
I00
S'\x99\x88pW\xca\xba~@'
tbsg33
g10
(g11
S'\x02\x9a\n\t\x17\xcc\xf2?'
tRp908
sg35
g10
(g11
S'\xbd\x99I"\xf0\x1a\xcd?'
tRp909
sg37
F-99
sg38
I0
sg39
g1
(g2
(I0
tS'b'
tRp910
(I1
(I1
tg11
I00
S'\x9aA1\xe8\xf8\x13\x0c@'
tbsg41
F-99
sg42
F-99
sg43
g10
(g11
S'\xcd\x80\xa4q5\xfe\x00@'
tRp911
sg45
F-99
sg46
g10
(g11
S'\xb2\x9d\xef\xa7\xc6\x0b \xc0'
tRp912
sg48
g10
(g11
S'\xf0~K)}\xfb\xdd?'
tRp913
sg50
F-99
sg51
F-99
ssg52
S'1615'
p914
sg54
F-69.364500000000007
sg55
g10
(g11
S'\xb2\x9d\xef\xa7\xc6\x0b \xc0'
tRp915
sg57
(dp916
g37
F-99
sg39
g910
sg23
F-99
sg17
F-99
sg18
F0.20100000000000001
sg19
F-99
sg20
I0
sg21
F-99
sg22
F-99
sg16
F-99
sg24
g905
sg26
g906
sg29
F0.0018331805682859762
sg30
F-99
sg43
g911
sg31
g907
sg33
g908
sg35
g909
sg15
F-99
sg38
I0
sg50
F-99
sg41
F-99
sg42
F-99
sg28
F-99
sg45
F-99
sg46
g912
sg48
g913
sg51
F-99
ssg59
I5
sg60
S'1'
sg61
F5.0912300000000004
sg62
S'4046'
p917
sg64
g10
(g11
S'\xf8\x89\x03hJ+\xe9@'
tRp918
sg66
g10
(g11
S'\xd2\xe1!\x8cM\xde\xe7@'
tRp919
sba(idata_structure
C_TSi
p920
(dp921
g9
g10
(g11
S'{\x14\xaeG\xe1zt?'
tRp922
sg13
(dp923
g15
F-99
sg16
F-99
sg17
F-99
sg18
F0.16700000000000001
sg19
F-99
sg20
I0
sg21
F-99
sg22
F-99
sg23
F-99
sg24
g10
(g11
S't\xae\x81U\xff\x9eH@'
tRp924
sg26
g10
(g11
S'\x98p\xb4\x99.\x10\xa3?'
tRp925
sg28
F-99
sg29
F0
sg30
F-99
sg31
g1
(g2
(I0
tS'b'
tRp926
(I1
(I1
tg11
I00
S'\xbd\xbd\xfe\x11\x93\xfax@'
tbsg33
g10
(g11
S'e\xc4\x00\xb6\xbfc\xe2?'
tRp927
sg35
g10
(g11
S'\xb8*\xec\xaa\xfeF\xd3?'
tRp928
sg37
F-99
sg38
I0
sg39
g1
(g2
(I0
tS'b'
tRp929
(I1
(I1
tg11
I00
S'\x1fU\xfb\x94O&\x0b@'
tbsg41
F-99
sg42
F-99
sg43
g10
(g11
S'\x05B\n\x99\nD\x00@'
tRp930
sg45
F-99
sg46
g10
(g11
S'p=\n\xd7\xa3\x10 \xc0'
tRp931
sg48
g10
(g11
S'/7q\x9d#.\xdd?'
tRp932
sg50
F-99
sg51
F-99
ssg52
S'1441'
p933
sg54
F-69.341800000000006
sg55
g10
(g11
S'p=\n\xd7\xa3\x10 \xc0'
tRp934
sg57
(dp935
g37
F-99
sg39
g929
sg23
F-99
sg17
F-99
sg18
F0.16700000000000001
sg19
F-99
sg20
I0
sg21
F-99
sg22
F-99
sg16
F-99
sg24
g924
sg26
g925
sg29
F0
sg30
F-99
sg43
g930
sg31
g926
sg33
g927
sg35
g928
sg15
F-99
sg38
I0
sg50
F-99
sg41
F-99
sg42
F-99
sg28
F-99
sg45
F-99
sg46
g931
sg48
g932
sg51
F-99
ssg59
I5
sg60
S'1'
sg61
F5.0930200000000001
sg62
S'4047'
p936
sg64
g10
(g11
S'\xf8\x89\x03hJ+\xe9@'
tRp937
sg66
g10
(g11
S'\x18@\xf8P1\xd9\xe7@'
tRp938
sba(idata_structure
C_TSi
p939
(dp940
g9
g10
(g11
S'\xb8\x1e\x85\xebQ\xb8\x8e?'
tRp941
sg13
(dp942
g15
F-99
sg16
F-99
sg17
F-99
sg18
F0.127
sg19
F-99
sg20
I0
sg21
F-99
sg22
F-99
sg23
F-99
sg24
g10
(g11
S'\xfa\rC?\xe7\x16\x12@'
tRp943
sg26
g10
(g11
S'\xfb\xf18\x97\xe5%\x86?'
tRp944
sg28
F-99
sg29
F0
sg30
F-99
sg31
g1
(g2
(I0
tS'b'
tRp945
(I1
(I1
tg11
I00
S'\x8e\x974\xc1\xe1\xbb\x81@'
tbsg33
g10
(g11
S'4\x95B\xca\xea\x8c\xed?'
tRp946
sg35
g10
(g11
S'pK^\xb2\x10j\xb4?'
tRp947
sg37
F-99
sg38
I0
sg39
g1
(g2
(I0
tS'b'
tRp948
(I1
(I1
tg11
I00
S'4\x19\x03\x92\xaal\xf4?'
tbsg41
F-99
sg42
F-99
sg43
g10
(g11
S'J\xbb<\x91\t\x0f\x00@'
tRp949
sg45
F-99
sg46
g10
(g11
S'\xdb\xf9~j\xbct\x1d\xc0'
tRp950
sg48
g10
(g11
S'v)\x875\xd1\xb3\xdc?'
tRp951
sg50
F-99
sg51
F-99
ssg52
S'28'
p952
sg54
F-69.251400000000004
sg55
g10
(g11
S'\xdb\xf9~j\xbct\x1d\xc0'
tRp953
sg57
(dp954
g37
F-99
sg39
g948
sg23
F-99
sg17
F-99
sg18
F0.127
sg19
F-99
sg20
I0
sg21
F-99
sg22
F-99
sg16
F-99
sg24
g943
sg26
g944
sg29
F0
sg30
F-99
sg43
g949
sg31
g945
sg33
g946
sg35
g947
sg15
F-99
sg38
I0
sg50
F-99
sg41
F-99
sg42
F-99
sg28
F-99
sg45
F-99
sg46
g950
sg48
g951
sg51
F-99
ssg59
I5
sg60
S'1'
sg61
F5.0848399999999998
sg62
S'4048'
p955
sg64
g10
(g11
S'\xf8\x89\x03hJ+\xe9@'
tRp956
sg66
g10
(g11
S'Vb\x9e\x95\xef\xd6\xe7@'
tRp957
sba(idata_structure
C_TSi
p958
(dp959
g9
g10
(g11
S'\xfa~j\xbct\x93h?'
tRp960
sg13
(dp961
g15
F-99
sg16
F-99
sg17
F-99
sg18
F0.20999999999999999
sg19
F-99
sg20
I0
sg21
F-99
sg22
F-99
sg23
F-99
sg24
g10
(g11
S'5s[\x8e\xfc\xd0V@'
tRp962
sg26
g10
(g11
S'\xa0\xda\xee#du\xa0?'
tRp963
sg28
F-99
sg29
F0
sg30
F-99
sg31
g1
(g2
(I0
tS'b'
tRp964
(I1
(I1
tg11
I00
S'\xcf\xbf\xbc\x1e\xc4\xffz@'
tbsg33
g10
(g11
S'\x85\xe2\xd1\xa5\r\x97\xf2?'
tRp965
sg35
g10
(g11
S'z\xf0B\x14NY\xd3?'
tRp966
sg37
F-99
sg38
I0
sg39
g1
(g2
(I0
tS'b'
tRp967
(I1
(I1
tg11
I00
S'\x1d7U\x95\x92\xda\x1e@'
tbsg41
F-99
sg42
F-99
sg43
g10
(g11
S'(\xfe>\xed\xf6\x81\xf8?'
tRp968
sg45
F-99
sg46
g10
(g11
S'\xf0\xa7\xc6K7\xe9"\xc0'
tRp969
sg48
g10
(g11
S'\xc1\xf3\x05\x0b \x96\xdd?'
tRp970
sg50
F-99
sg51
F-99
ssg52
S'6'
sg54
F-69.253399999999999
sg55
g10
(g11
S'\xf0\xa7\xc6K7\xe9"\xc0'
tRp971
sg57
(dp972
g37
F-99
sg39
g967
sg23
F-99
sg17
F-99
sg18
F0.20999999999999999
sg19
F-99
sg20
I0
sg21
F-99
sg22
F-99
sg16
F-99
sg24
g962
sg26
g963
sg29
F0
sg30
F-99
sg43
g968
sg31
g964
sg33
g965
sg35
g966
sg15
F-99
sg38
I0
sg50
F-99
sg41
F-99
sg42
F-99
sg28
F-99
sg45
F-99
sg46
g969
sg48
g970
sg51
F-99
ssg59
I5
sg60
S'1'
sg61
F5.0857900000000003
sg62
S'4048'
p973
sg64
g10
(g11
S'\xf8\x89\x03hJ+\xe9@'
tRp974
sg66
g10
(g11
S'\xf05\x04G\xef\xd6\xe7@'
tRp975
sba(idata_structure
C_TSi
p976
(dp977
g9
g10
(g11
S'{\x14\xaeG\xe1zt?'
tRp978
sg13
(dp979
g15
F-99
sg16
F-99
sg17
F-99
sg18
F0.13900000000000001
sg19
F-99
sg20
I0
sg21
F-99
sg22
F-99
sg23
F-99
sg24
g10
(g11
S'\x96\xe9\x07\xc0\xe9\x1b=@'
tRp980
sg26
g10
(g11
S'|\xbeMU\x9f\x1d\x94?'
tRp981
sg28
F-99
sg29
F0
sg30
F-99
sg31
g1
(g2
(I0
tS'b'
tRp982
(I1
(I1
tg11
I00
S'\x9aX\x8c9\xfb=\x80@'
tbsg33
g10
(g11
S'R?-6\x96~\xed?'
tRp983
sg35
g10
(g11
S'\x05\xb9/QAl\xc4?'
tRp984
sg37
F-99
sg38
I1
sg39
g1
(g2
(I0
tS'b'
tRp985
(I1
(I1
tg11
I00
S"[m\xdeE\x14'\x02@"
tbsg41
F-99
sg42
F-99
sg43
g10
(g11
S'\xafQ\xc9\x9e\xe8\xef\x00@'
tRp986
sg45
F-99
sg46
g10
(g11
S'\xb0rh\x91\xed< \xc0'
tRp987
sg48
g10
(g11
S'nL\x80\xa7d\x80\xdd?'
tRp988
sg50
F-99
sg51
F-99
ssg52
S'1534'
p989
sg54
F-69.193200000000004
sg55
g10
(g11
S'\xb0rh\x91\xed< \xc0'
tRp990
sg57
(dp991
g37
F-99
sg39
g985
sg23
F-99
sg17
F-99
sg18
F0.13900000000000001
sg19
F-99
sg20
I0
sg21
F-99
sg22
F-99
sg16
F-99
sg24
g980
sg26
g981
sg29
F0
sg30
F-99
sg43
g986
sg31
g982
sg33
g983
sg35
g984
sg15
F-99
sg38
I1
sg50
F-99
sg41
F-99
sg42
F-99
sg28
F-99
sg45
F-99
sg46
g987
sg48
g988
sg51
F-99
ssg59
I5
sg60
S'1'
sg61
F5.0907
sg62
S'4049'
p992
sg64
g10
(g11
S'\xf8\x89\x03hJ+\xe9@'
tRp993
sg66
g10
(g11
S'\xd2\xe1!\x8cM\xde\xe7@'
tRp994
sba(idata_structure
C_TSi
p995
(dp996
g9
g10
(g11
S'{\x14\xaeG\xe1z\x84?'
tRp997
sg13
(dp998
g15
F-99
sg16
F-99
sg17
F-99
sg18
F0.16700000000000001
sg19
F-99
sg20
I0
sg21
F-99
sg22
F-99
sg23
F-99
sg24
g10
(g11
S'\xa0\x10\xb5)\xcad(@'
tRp999
sg26
g10
(g11
S'gj\xbd!\x8e\x19\x96?'
tRp1000
sg28
F-99
sg29
F0.0018083182640144665
sg30
F-99
sg31
g1
(g2
(I0
tS'b'
tRp1001
(I1
(I1
tg11
I00
S'\x0c7\xa8\xceY\xe9|@'
tbsg33
g10
(g11
S',\t\x85:\xde\xad\xf8?'
tRp1002
sg35
g10
(g11
S'\xb3\xccVo\xcb\xc3\xc3?'
tRp1003
sg37
F-99
sg38
I0
sg39
g1
(g2
(I0
tS'b'
tRp1004
(I1
(I1
tg11
I00
S'\xf9\xb4A\xde\n\xf8\xf9?'
tbsg41
F-99
sg42
F-99
sg43
g10
(g11
S'\xb6\xb1\x00\r\x0e/\x02@'
tRp1005
sg45
F-99
sg46
g10
(g11
S'q=\n\xd7\xa3p\x1c\xc0'
tRp1006
sg48
g10
(g11
S'\xf4\xfa\xbaq\x03\x19\xdd?'
tRp1007
sg50
F-99
sg51
F-99
ssg52
S'55'
p1008
sg54
F-68.997699999999995
sg55
g10
(g11
S'q=\n\xd7\xa3p\x1c\xc0'
tRp1009
sg57
(dp1010
g37
F-99
sg39
g1004
sg23
F-99
sg17
F-99
sg18
F0.16700000000000001
sg19
F-99
sg20
I0
sg21
F-99
sg22
F-99
sg16
F-99
sg24
g999
sg26
g1000
sg29
F0.0018083182640144665
sg30
F-99
sg43
g1005
sg31
g1001
sg33
g1002
sg35
g1003
sg15
F-99
sg38
I0
sg50
F-99
sg41
F-99
sg42
F-99
sg28
F-99
sg45
F-99
sg46
g1006
sg48
g1007
sg51
F-99
ssg59
I5
sg60
S'1'
sg61
F5.0955599999999999
sg62
S'4052'
p1011
sg64
g10
(g11
S'\xf8\x89\x03hJ+\xe9@'
tRp1012
sg66
g10
(g11
S'\x1b\xa1\x9f\xa9\x0e\xd7\xe7@'
tRp1013
sba(idata_structure
C_TSi
p1014
(dp1015
g9
g10
(g11
S'y\xe9&1\x08\xac\xac?'
tRp1016
sg13
(dp1017
g15
F-99
sg16
F-99
sg17
F-99
sg18
F0.25600000000000001
sg19
F-99
sg20
I0
sg21
F-99
sg22
F-99
sg23
F-99
sg24
g10
(g11
S'\xfei;\xec\x9b\xfc\xf7?'
tRp1018
sg26
g10
(g11
S'@\x8a\xdfD\xc0\xbe\x8e?'
tRp1019
sg28
F-99
sg29
F0.0017256255392579811
sg30
F-99
sg31
g1
(g2
(I0
tS'b'
tRp1020
(I1
(I1
tg11
I00
S'*\xb0?"\xe8Zx@'
tbsg33
g10
(g11
S'\x1eJ`\x08\x85\xe8\x01@'
tRp1021
sg35
g10
(g11
S'\xd5\x0c\x18r\xd3^\xbb?'
tRp1022
sg37
F-99
sg38
I0
sg39
g1
(g2
(I0
tS'b'
tRp1023
(I1
(I1
tg11
I00
S'\xb9\xc8~!\x7f\xae\xf6?'
tbsg41
F-99
sg42
F-99
sg43
g10
(g11
S'\xba;\xd0:\xfa\x9f\x00@'
tRp1024
sg45
F-99
sg46
g10
(g11
S'\x06\x81\x95C\x8bl\x1c\xc0'
tRp1025
sg48
g10
(g11
S'\x8f\x19N*\x07\x9c\xdc?'
tRp1026
sg50
F-99
sg51
F-99
ssg52
S'53'
p1027
sg54
F-68.956800000000001
sg55
g10
(g11
S'\x06\x81\x95C\x8bl\x1c\xc0'
tRp1028
sg57
(dp1029
g37
F-99
sg39
g1023
sg23
F-99
sg17
F-99
sg18
F0.25600000000000001
sg19
F-99
sg20
I0
sg21
F-99
sg22
F-99
sg16
F-99
sg24
g1018
sg26
g1019
sg29
F0.0017256255392579811
sg30
F-99
sg43
g1024
sg31
g1020
sg33
g1021
sg35
g1022
sg15
F-99
sg38
I0
sg50
F-99
sg41
F-99
sg42
F-99
sg28
F-99
sg45
F-99
sg46
g1025
sg48
g1026
sg51
F-99
ssg59
I5
sg60
S'1'
sg61
F5.09375
sg62
S'4053'
p1030
sg64
g10
(g11
S'\xf8\x89\x03hJ+\xe9@'
tRp1031
sg66
g10
(g11
S'\x18@\xf8P1\xd9\xe7@'
tRp1032
sba(idata_structure
C_TSi
p1033
(dp1034
g9
g10
(g11
S'\xfa~j\xbct\x93h?'
tRp1035
sg13
(dp1036
g15
F-99
sg16
F-99
sg17
F-99
sg18
F0.24299999999999999
sg19
F-99
sg20
I0
sg21
F-99
sg22
F-99
sg23
F-99
sg24
g10
(g11
S'\x0b*\x12\x84\xb1;P@'
tRp1037
sg26
g10
(g11
S'\xa5\x94[a\xdc\xba\x98?'
tRp1038
sg28
F-99
sg29
F0
sg30
F-99
sg31
g1
(g2
(I0
tS'b'
tRp1039
(I1
(I1
tg11
I00
S'\x02(\x8a\xb8\xe4A\x7f@'
tbsg33
g10
(g11
S'\x80\x1f\x01r\xe0\xea\xea?'
tRp1040
sg35
g10
(g11
S'\xf0\xc6\x1e\xca\x0b7\xcc?'
tRp1041
sg37
F-99
sg38
I1
sg39
g1
(g2
(I0
tS'b'
tRp1042
(I1
(I1
tg11
I00
S'\x9bN\x07\xb2\x9e\x98\x1d@'
tbsg41
F-99
sg42
F-99
sg43
g10
(g11
S'\xe4\x85\xbf\xab\xff\x08\xf7?'
tRp1043
sg45
F-99
sg46
g10
(g11
S'h\x91\xed|?U"\xc0'
tRp1044
sg48
g10
(g11
S'M,\xa3\xaf\xdcE\xdf?'
tRp1045
sg50
F-99
sg51
F-99
ssg52
S'15'
p1046
sg54
F-68.851600000000005
sg55
g10
(g11
S'h\x91\xed|?U"\xc0'
tRp1047
sg57
(dp1048
g37
F-99
sg39
g1042
sg23
F-99
sg17
F-99
sg18
F0.24299999999999999
sg19
F-99
sg20
I0
sg21
F-99
sg22
F-99
sg16
F-99
sg24
g1037
sg26
g1038
sg29
F0
sg30
F-99
sg43
g1043
sg31
g1039
sg33
g1040
sg35
g1041
sg15
F-99
sg38
I1
sg50
F-99
sg41
F-99
sg42
F-99
sg28
F-99
sg45
F-99
sg46
g1044
sg48
g1045
sg51
F-99
ssg59
I5
sg60
S'1'
sg61
F5.0950199999999999
sg62
S'4054'
p1049
sg64
g10
(g11
S'\xf8\x89\x03hJ+\xe9@'
tRp1050
sg66
g10
(g11
S'\xf05\x04G\xef\xd6\xe7@'
tRp1051
sba(idata_structure
C_TSi
p1052
(dp1053
g9
g10
(g11
S'\xfc\xa9\xf1\xd2Mbp?'
tRp1054
sg13
(dp1055
g15
F-99
sg16
F-99
sg17
F-99
sg18
F0.23000000000000001
sg19
F-99
sg20
I0
sg21
F-99
sg22
F-99
sg23
F-99
sg24
g10
(g11
S'S\xe42\\\xb4\x1bJ@'
tRp1056
sg26
g10
(g11
S'\x91\xa7\x91\x8fnT\x9d?'
tRp1057
sg28
F-99
sg29
F0
sg30
F-99
sg31
g1
(g2
(I0
tS'b'
tRp1058
(I1
(I1
tg11
I00
S'\xdd\x06h\xd7\xf2ls@'
tbsg33
g10
(g11
S'\x0f}f\xbd\x18\x9c\xef?'
tRp1059
sg35
g10
(g11
S'\xfea\xc5\xa0\xf6&\xcf?'
tRp1060
sg37
F-99
sg38
I1
sg39
g1
(g2
(I0
tS'b'
tRp1061
(I1
(I1
tg11
I00
S'\x04\xc9\x84G;\x88\x11@'
tbsg41
F-99
sg42
F-99
sg43
g10
(g11
S'\xe9\x85\x16\x12\x98\x03\xff?'
tRp1062
sg45
F-99
sg46
g10
(g11
S'\xe4\xa5\x9b\xc4 \xf0 \xc0'
tRp1063
sg48
g10
(g11
S'!!\xfc\x01f2\xde?'
tRp1064
sg50
F-99
sg51
F-99
ssg52
S'2227'
p1065
sg54
F-68.7684
sg55
g10
(g11
S'\xe4\xa5\x9b\xc4 \xf0 \xc0'
tRp1066
sg57
(dp1067
g37
F-99
sg39
g1061
sg23
F-99
sg17
F-99
sg18
F0.23000000000000001
sg19
F-99
sg20
I0
sg21
F-99
sg22
F-99
sg16
F-99
sg24
g1056
sg26
g1057
sg29
F0
sg30
F-99
sg43
g1062
sg31
g1058
sg33
g1059
sg35
g1060
sg15
F-99
sg38
I1
sg50
F-99
sg41
F-99
sg42
F-99
sg28
F-99
sg45
F-99
sg46
g1063
sg48
g1064
sg51
F-99
ssg59
I5
sg60
S'1'
sg61
F5.0872999999999999
sg62
S'4055'
p1068
sg64
g10
(g11
S'\xf8\x89\x03hJ+\xe9@'
tRp1069
sg66
g10
(g11
S'\x1b\xa1\x9f\xa9\x0e\xd7\xe7@'
tRp1070
sba(idata_structure
C_TSi
p1071
(dp1072
g9
g10
(g11
S'\xfc\xa9\xf1\xd2Mbp?'
tRp1073
sg13
(dp1074
g15
F-99
sg16
F-99
sg17
F-99
sg18
F0.23499999999999999
sg19
F-99
sg20
I0
sg21
F-99
sg22
F-99
sg23
F-99
sg24
g10
(g11
S',\x01KX\xa5\x02L@'
tRp1075
sg26
g10
(g11
S'\x19\x96\xcab\xc81\xa1?'
tRp1076
sg28
F-99
sg29
F0
sg30
F-99
sg31
g1
(g2
(I0
tS'b'
tRp1077
(I1
(I1
tg11
I00
S'o\xd4\\I\x99B{@'
tbsg33
g10
(g11
S'$\xc8\x05\xf2>\xe2\xed?'
tRp1078
sg35
g10
(g11
S'\x8d\xa3\x82\xf5\x91\x01\xd2?'
tRp1079
sg37
F-99
sg38
I0
sg39
g1
(g2
(I0
tS'b'
tRp1080
(I1
(I1
tg11
I00
S'&\x97\xb6E\xfd\xb4\x12@'
tbsg41
F-99
sg42
F-99
sg43
g10
(g11
S'"\xfe3Lu\xdf\xfc?'
tRp1081
sg45
F-99
sg46
g10
(g11
S'\xfe\xd4x\xe9&\xb1 \xc0'
tRp1082
sg48
g10
(g11
S'\xff\t\x9b+\xc8\x85\xdd?'
tRp1083
sg50
F-99
sg51
F-99
ssg52
S'24'
p1084
sg54
F-69.158500000000004
sg55
g10
(g11
S'\xfe\xd4x\xe9&\xb1 \xc0'
tRp1085
sg57
(dp1086
g37
F-99
sg39
g1080
sg23
F-99
sg17
F-99
sg18
F0.23499999999999999
sg19
F-99
sg20
I0
sg21
F-99
sg22
F-99
sg16
F-99
sg24
g1075
sg26
g1076
sg29
F0
sg30
F-99
sg43
g1081
sg31
g1077
sg33
g1078
sg35
g1079
sg15
F-99
sg38
I0
sg50
F-99
sg41
F-99
sg42
F-99
sg28
F-99
sg45
F-99
sg46
g1082
sg48
g1083
sg51
F-99
ssg59
I5
sg60
S'1'
sg61
F5.0979000000000001
sg62
S'4171'
p1087
sg64
g10
(g11
S'\xf8\x89\x03hJ+\xe9@'
tRp1088
sg66
g10
(g11
S'\x1b\xa1\x9f\xa9\x0e\xd7\xe7@'
tRp1089
sba(idata_structure
C_TSi
p1090
(dp1091
g9
g10
(g11
S'\xfc\xa9\xf1\xd2Mb`?'
tRp1092
sg13
(dp1093
g15
F-99
sg16
F-99
sg17
F-99
sg18
F0.114
sg19
F-99
sg20
I0
sg21
F-99
sg22
F-99
sg23
F-99
sg24
g10
(g11
S'\xa75\x9d\x81Hy=@'
tRp1094
sg26
g10
(g11
S'\xb4\xac\tB%\xaa\x83?'
tRp1095
sg28
F-99
sg29
F0
sg30
F-99
sg31
g1
(g2
(I0
tS'b'
tRp1096
(I1
(I1
tg11
I00
S'#m\xfdE\x05\xfe~@'
tbsg33
g10
(g11
S'\x12v32{Z\xf6?'
tRp1097
sg35
g10
(g11
S'\x03\xa5\x19\xe8\xd3\x03\xb7?'
tRp1098
sg37
F-99
sg38
I0
sg39
g1
(g2
(I0
tS'b'
tRp1099
(I1
(I1
tg11
I00
S'\xb2\xc1Y0n\x9c\x12@'
tbsg41
F-99
sg42
F-99
sg43
g10
(g11
S'\x13\xa7si\xe7(\xfb?'
tRp1100
sg45
F-99
sg46
g10
(g11
S'\x88\x16\xd9\xce\xf7\xb3"\xc0'
tRp1101
sg48
g10
(g11
S'\x1e\xd9\x13-\xa6\xa1\xdd?'
tRp1102
sg50
F-99
sg51
F-99
ssg52
S'14'
p1103
sg54
F-68.865899999999996
sg55
g10
(g11
S'\x88\x16\xd9\xce\xf7\xb3"\xc0'
tRp1104
sg57
(dp1105
g37
F-99
sg39
g1099
sg23
F-99
sg17
F-99
sg18
F0.114
sg19
F-99
sg20
I0
sg21
F-99
sg22
F-99
sg16
F-99
sg24
g1094
sg26
g1095
sg29
F0
sg30
F-99
sg43
g1100
sg31
g1096
sg33
g1097
sg35
g1098
sg15
F-99
sg38
I0
sg50
F-99
sg41
F-99
sg42
F-99
sg28
F-99
sg45
F-99
sg46
g1101
sg48
g1102
sg51
F-99
ssg59
I5
sg60
S'1'
sg61
F5.1041400000000001
sg62
S'4175'
p1106
sg64
g10
(g11
S'\xf8\x89\x03hJ+\xe9@'
tRp1107
sg66
g10
(g11
S'\x1b\xa1\x9f\xa9\x0e\xd7\xe7@'
tRp1108
sba(idata_structure
C_TSi
p1109
(dp1110
g9
g10
(g11
S'\xfc\xa9\xf1\xd2Mb\x80?'
tRp1111
sg13
(dp1112
g15
F-99
sg16
F-99
sg17
F-99
sg18
F0.111
sg19
F-99
sg20
I0
sg21
F-99
sg22
F-99
sg23
F-99
sg24
g10
(g11
S'\x06t&\x9d\xe2\x13"@'
tRp1113
sg26
g10
(g11
S'\x98(\xa6\xd4\x86o\x88?'
tRp1114
sg28
F-99
sg29
F0
sg30
F-99
sg31
g1
(g2
(I0
tS'b'
tRp1115
(I1
(I1
tg11
I00
S'\ras\xcd\x1a\t\x82@'
tbsg33
g10
(g11
S'\x90kP\x82\xb8\xc0\xf0?'
tRp1116
sg35
g10
(g11
S'Lw\xd1\x9c\x92\xdb\xb8?'
tRp1117
sg37
F-99
sg38
I0
sg39
g1
(g2
(I0
tS'b'
tRp1118
(I1
(I1
tg11
I00
S'\xf3\xe4\xf4\x00\xf9X\x00@'
tbsg41
F-99
sg42
F-99
sg43
g10
(g11
S'\x062\x9d\x8b\x14V\x01@'
tRp1119
sg45
F-99
sg46
g10
(g11
S'\xd9\xce\xf7S\xe3E \xc0'
tRp1120
sg48
g10
(g11
S'6\xf5\x04qwr\xdd?'
tRp1121
sg50
F-99
sg51
F-99
ssg52
S'34'
p1122
sg54
F-68.789299999999997
sg55
g10
(g11
S'\xd9\xce\xf7S\xe3E \xc0'
tRp1123
sg57
(dp1124
g37
F-99
sg39
g1118
sg23
F-99
sg17
F-99
sg18
F0.111
sg19
F-99
sg20
I0
sg21
F-99
sg22
F-99
sg16
F-99
sg24
g1113
sg26
g1114
sg29
F0
sg30
F-99
sg43
g1119
sg31
g1115
sg33
g1116
sg35
g1117
sg15
F-99
sg38
I0
sg50
F-99
sg41
F-99
sg42
F-99
sg28
F-99
sg45
F-99
sg46
g1120
sg48
g1121
sg51
F-99
ssg59
I5
sg60
S'1'
sg61
F5.1045999999999996
sg62
S'4176'
p1125
sg64
g10
(g11
S'\xf8\x89\x03hJ+\xe9@'
tRp1126
sg66
g10
(g11
S'\x1b\xa1\x9f\xa9\x0e\xd7\xe7@'
tRp1127
sba(idata_structure
C_TSi
p1128
(dp1129
g9
g10
(g11
S'{\x14\xaeG\xe1zt?'
tRp1130
sg13
(dp1131
g15
F-99
sg16
F-99
sg17
F-99
sg18
F0.27200000000000002
sg19
F-99
sg20
I1
sg21
F-99
sg22
F-99
sg23
F-99
sg24
g10
(g11
S'w\x80T\x9c\x96\x15=@'
tRp1132
sg26
g10
(g11
S'V$[\xf4\xf0o\x97?'
tRp1133
sg28
F-99
sg29
F0
sg30
F-99
sg31
g1
(g2
(I0
tS'b'
tRp1134
(I1
(I1
tg11
I00
S'3+\xd5\xc3\x83\x06~@'
tbsg33
g10
(g11
S'\x95~\x96\x99\x87\x92\xf0?'
tRp1135
sg35
g10
(g11
S"P\x8e('&\x83\xc7?"
tRp1136
sg37
F-99
sg38
I1
sg39
g1
(g2
(I0
tS'b'
tRp1137
(I1
(I1
tg11
I00
S'\xdd\xddh2\xa9"\x10@'
tbsg41
F-99
sg42
F-99
sg43
g10
(g11
S'k\x98\xc3\xa5r4\xfe?'
tRp1138
sg45
F-99
sg46
g10
(g11
S'\x8d\x97n\x12\x83\x00 \xc0'
tRp1139
sg48
g10
(g11
S'\xbd\xc2\xbe\x02;\n\xdd?'
tRp1140
sg50
F-99
sg51
F-99
ssg52
S'25'
p1141
sg54
F-69.305899999999994
sg55
g10
(g11
S'\x8d\x97n\x12\x83\x00 \xc0'
tRp1142
sg57
(dp1143
g37
F-99
sg39
g1137
sg23
F-99
sg17
F-99
sg18
F0.27200000000000002
sg19
F-99
sg20
I1
sg21
F-99
sg22
F-99
sg16
F-99
sg24
g1132
sg26
g1133
sg29
F0
sg30
F-99
sg43
g1138
sg31
g1134
sg33
g1135
sg35
g1136
sg15
F-99
sg38
I1
sg50
F-99
sg41
F-99
sg42
F-99
sg28
F-99
sg45
F-99
sg46
g1139
sg48
g1140
sg51
F-99
ssg59
I5
sg60
S'1'
sg61
F5.1165399999999996
sg62
S'4289'
p1144
sg64
g10
(g11
S'\xf8\x89\x03hJ+\xe9@'
tRp1145
sg66
g10
(g11
S'\xf05\x04G\xef\xd6\xe7@'
tRp1146
sba(idata_structure
C_TSi
p1147
(dp1148
g9
g10
(g11
S'\xfa~j\xbct\x93x?'
tRp1149
sg13
(dp1150
g15
F-99
sg16
F-99
sg17
F-99
sg18
F0.14999999999999999
sg19
F-99
sg20
I0
sg21
F-99
sg22
F-99
sg23
F-99
sg24
g10
(g11
S'\xa5}A\xaf\xd0\xe73@'
tRp1151
sg26
g10
(g11
S'\x1e\x06\xe0\x1a\xbd\xd9\x91?'
tRp1152
sg28
F-99
sg29
F0
sg30
F-99
sg31
g1
(g2
(I0
tS'b'
tRp1153
(I1
(I1
tg11
I00
S'>^\xa8<\xf40~@'
tbsg33
g10
(g11
S'E\xa7\xef\xbe\xb8\xce\xee?'
tRp1154
sg35
g10
(g11
S'B#\x1a\x04\x0b3\xc2?'
tRp1155
sg37
F-99
sg38
I0
sg39
g1
(g2
(I0
tS'b'
tRp1156
(I1
(I1
tg11
I00
S'\r\x00y\xa6\x86C\x01@'
tbsg41
F-99
sg42
F-99
sg43
g10
(g11
S'\xe6\xe4W(y\xc5\x00@'
tRp1157
sg45
F-99
sg46
g10
(g11
S'D\x8bl\xe7\xfbI \xc0'
tRp1158
sg48
g10
(g11
S'0#\x92@\xe6#\xde?'
tRp1159
sg50
F-99
sg51
F-99
ssg52
S'35'
p1160
sg54
F-69.171700000000001
sg55
g10
(g11
S'D\x8bl\xe7\xfbI \xc0'
tRp1161
sg57
(dp1162
g37
F-99
sg39
g1156
sg23
F-99
sg17
F-99
sg18
F0.14999999999999999
sg19
F-99
sg20
I0
sg21
F-99
sg22
F-99
sg16
F-99
sg24
g1151
sg26
g1152
sg29
F0
sg30
F-99
sg43
g1157
sg31
g1153
sg33
g1154
sg35
g1155
sg15
F-99
sg38
I0
sg50
F-99
sg41
F-99
sg42
F-99
sg28
F-99
sg45
F-99
sg46
g1158
sg48
g1159
sg51
F-99
ssg59
I5
sg60
S'1'
sg61
F5.1172500000000003
sg62
S'4291'
p1163
sg64
g10
(g11
S'hur\x06\xab*\xe9@'
tRp1164
sg66
g10
(g11
S'\x1b\xa1\x9f\xa9\x0e\xd7\xe7@'
tRp1165
sba(idata_structure
C_TSi
p1166
(dp1167
g9
g10
(g11
S'\xfa~j\xbct\x93x?'
tRp1168
sg13
(dp1169
g15
F-99
sg16
F-99
sg17
F-99
sg18
F0.14799999999999999
sg19
F-99
sg20
I0
sg21
F-99
sg22
F-99
sg23
F-99
sg24
g10
(g11
S'UD>\xd7.\xeeA@'
tRp1170
sg26
g10
(g11
S'Q\xe8*qz\x94\x9f?'
tRp1171
sg28
F-99
sg29
F0.007104795737122558
sg30
F-99
sg31
g1
(g2
(I0
tS'b'
tRp1172
(I1
(I1
tg11
I00
S'\x99\x14\xe4\xf1\x98xv@'
tbsg33
g10
(g11
S'5q\xdf\xb9\xce\xe4\xee?'
tRp1173
sg35
g10
(g11
S'x\xa8\xce3\x01L\xd0?'
tRp1174
sg37
F-99
sg38
I0
sg39
g1
(g2
(I0
tS'b'
tRp1175
(I1
(I1
tg11
I00
S'M\xbf>\xe5<\xad\r@'
tbsg41
F-99
sg42
F-99
sg43
g10
(g11
S'\x1aVp\xbf\xb1\xe8\xff?'
tRp1176
sg45
F-99
sg46
g10
(g11
S'\x8aA`\xe5\xd0b \xc0'
tRp1177
sg48
g10
(g11
S'\x17t\xae;~\xa8\xdd?'
tRp1178
sg50
F-99
sg51
F-99
ssg52
S'36'
p1179
sg54
F-68.962999999999994
sg55
g10
(g11
S'\x8aA`\xe5\xd0b \xc0'
tRp1180
sg57
(dp1181
g37
F-99
sg39
g1175
sg23
F-99
sg17
F-99
sg18
F0.14799999999999999
sg19
F-99
sg20
I0
sg21
F-99
sg22
F-99
sg16
F-99
sg24
g1170
sg26
g1171
sg29
F0.007104795737122558
sg30
F-99
sg43
g1176
sg31
g1172
sg33
g1173
sg35
g1174
sg15
F-99
sg38
I0
sg50
F-99
sg41
F-99
sg42
F-99
sg28
F-99
sg45
F-99
sg46
g1177
sg48
g1178
sg51
F-99
ssg59
I5
sg60
S'1'
sg61
F5.1108500000000001
sg62
S'4294'
p1182
sg64
g10
(g11
S'\xf8\x89\x03hJ+\xe9@'
tRp1183
sg66
g10
(g11
S'Vb\x9e\x95\xef\xd6\xe7@'
tRp1184
sba(idata_structure
C_TSi
p1185
(dp1186
g9
g10
(g11
S'\xbaI\x0c\x02+\x87\x86?'
tRp1187
sg13
(dp1188
g15
F-99
sg16
F-99
sg17
F-99
sg18
F0.161
sg19
F-99
sg20
I0
sg21
F-99
sg22
F-99
sg23
F-99
sg24
g10
(g11
S'\xb5\xeb\xec\xf5\xacN\x14@'
tRp1189
sg26
g10
(g11
S'\r\xf1\xffv\xe6?\x83?'
tRp1190
sg28
F-99
sg29
F0
sg30
F-99
sg31
g1
(g2
(I0
tS'b'
tRp1191
(I1
(I1
tg11
I00
S'\xbctzG\xf3\x00\x80@'
tbsg33
g10
(g11
S'P\x8c\x0fk\x13e\xfc?'
tRp1192
sg35
g10
(g11
S'\xe9\x04\xcc}1>\xb2?'
tRp1193
sg37
F-99
sg38
I0
sg39
g1
(g2
(I0
tS'b'
tRp1194
(I1
(I1
tg11
I00
S'\xa8{PL\xc9u\xf7?'
tbsg41
F-99
sg42
F-99
sg43
g10
(g11
S'\xc9\x00\x03\xf5>:\x01@'
tRp1195
sg45
F-99
sg46
g10
(g11
S'\x1dZd;\xdfO\x1e\xc0'
tRp1196
sg48
g10
(g11
S'C\xc1\x87\x92\xcdb\xdd?'
tRp1197
sg50
F-99
sg51
F-99
ssg52
S'70'
p1198
sg54
F-68.893199999999993
sg55
g10
(g11
S'\x1dZd;\xdfO\x1e\xc0'
tRp1199
sg57
(dp1200
g37
F-99
sg39
g1194
sg23
F-99
sg17
F-99
sg18
F0.161
sg19
F-99
sg20
I0
sg21
F-99
sg22
F-99
sg16
F-99
sg24
g1189
sg26
g1190
sg29
F0
sg30
F-99
sg43
g1195
sg31
g1191
sg33
g1192
sg35
g1193
sg15
F-99
sg38
I0
sg50
F-99
sg41
F-99
sg42
F-99
sg28
F-99
sg45
F-99
sg46
g1196
sg48
g1197
sg51
F-99
ssg59
I5
sg60
S'1'
sg61
F5.1173000000000002
sg62
S'4296'
p1201
sg64
g10
(g11
S'\xf8\x89\x03hJ+\xe9@'
tRp1202
sg66
g10
(g11
S'Vb\x9e\x95\xef\xd6\xe7@'
tRp1203
sba(idata_structure
C_TSi
p1204
(dp1205
g9
g10
(g11
S'{\x14\xaeG\xe1zt?'
tRp1206
sg13
(dp1207
g15
F-99
sg16
F-99
sg17
F-99
sg18
F0.29899999999999999
sg19
F-99
sg20
I0
sg21
F-99
sg22
F-99
sg23
F-99
sg24
g10
(g11
S'\xb0VK\x8d\xd4LC@'
tRp1208
sg26
g10
(g11
S'\xc3\xf5\\i$\xc5\x9e?'
tRp1209
sg28
F-99
sg29
F0
sg30
F-99
sg31
g1
(g2
(I0
tS'b'
tRp1210
(I1
(I1
tg11
I00
S'b\x1f x\xe8#y@'
tbsg33
g10
(g11
S'\x90?\x94\x19\xa9\x0c\xf0?'
tRp1211
sg35
g10
(g11
S'\xa1\xc1\x83\x110\xc4\xce?'
tRp1212
sg37
F-99
sg38
I0
sg39
g1
(g2
(I0
tS'b'
tRp1213
(I1
(I1
tg11
I00
S'Y\x91;.\x17g\x10@'
tbsg41
F-99
sg42
F-99
sg43
g10
(g11
S'[\xa1\x9e.D\xcf\xfd?'
tRp1214
sg45
F-99
sg46
g10
(g11
S'\xbct\x93\x18\x04\xd6\x1f\xc0'
tRp1215
sg48
g10
(g11
S'\x94\x1egB\x15G\xdd?'
tRp1216
sg50
F-99
sg51
F-99
ssg52
S'29'
p1217
sg54
F-69.215800000000002
sg55
g10
(g11
S'\xbct\x93\x18\x04\xd6\x1f\xc0'
tRp1218
sg57
(dp1219
g37
F-99
sg39
g1213
sg23
F-99
sg17
F-99
sg18
F0.29899999999999999
sg19
F-99
sg20
I0
sg21
F-99
sg22
F-99
sg16
F-99
sg24
g1208
sg26
g1209
sg29
F0
sg30
F-99
sg43
g1214
sg31
g1210
sg33
g1211
sg35
g1212
sg15
F-99
sg38
I0
sg50
F-99
sg41
F-99
sg42
F-99
sg28
F-99
sg45
F-99
sg46
g1215
sg48
g1216
sg51
F-99
ssg59
I5
sg60
S'1'
sg61
F5.1251499999999997
sg62
S'4412'
p1220
sg64
g10
(g11
S'\xf8\x89\x03hJ+\xe9@'
tRp1221
sg66
g10
(g11
S'\xf05\x04G\xef\xd6\xe7@'
tRp1222
sba(idata_structure
C_TSi
p1223
(dp1224
g9
g10
(g11
S'{\x14\xaeG\xe1zt?'
tRp1225
sg13
(dp1226
g15
F-99
sg16
F-99
sg17
F-99
sg18
F0.12
sg19
F-99
sg20
I0
sg21
F-99
sg22
F-99
sg23
F-99
sg24
g10
(g11
S'\xfa\xf7o\x1e\xa1p6@'
tRp1227
sg26
g10
(g11
S'\x0b\x10\xa2\x02\xac\xc4\x91?'
tRp1228
sg28
F-99
sg29
F0
sg30
F-99
sg31
g1
(g2
(I0
tS'b'
tRp1229
(I1
(I1
tg11
I00
S'%s\x05\xff\xb0-\x81@'
tbsg33
g10
(g11
S'^\xa0\\\x04\x97\x01\xed?'
tRp1230
sg35
g10
(g11
S'\xd2\xc5\x93R\xca\xe1\xc1?'
tRp1231
sg37
F-99
sg38
I0
sg39
g1
(g2
(I0
tS'b'
tRp1232
(I1
(I1
tg11
I00
S'p\xf0\x17"\xacq\xfe?'
tbsg41
F-99
sg42
F-99
sg43
g10
(g11
S'J\xcd\xfd\xaa"m\x01@'
tRp1233
sg45
F-99
sg46
g10
(g11
S'\xee|?5^\x1a \xc0'
tRp1234
sg48
g10
(g11
S'\xfaE\xcd\xe9\x84\xaa\xdd?'
tRp1235
sg50
F-99
sg51
F-99
ssg52
S'42'
p1236
sg54
F-69.045900000000003
sg55
g10
(g11
S'\xee|?5^\x1a \xc0'
tRp1237
sg57
(dp1238
g37
F-99
sg39
g1232
sg23
F-99
sg17
F-99
sg18
F0.12
sg19
F-99
sg20
I0
sg21
F-99
sg22
F-99
sg16
F-99
sg24
g1227
sg26
g1228
sg29
F0
sg30
F-99
sg43
g1233
sg31
g1229
sg33
g1230
sg35
g1231
sg15
F-99
sg38
I0
sg50
F-99
sg41
F-99
sg42
F-99
sg28
F-99
sg45
F-99
sg46
g1234
sg48
g1235
sg51
F-99
ssg59
I5
sg60
S'1'
sg61
F5.1305199999999997
sg62
S'4414'
p1239
sg64
g10
(g11
S'\xf8\x89\x03hJ+\xe9@'
tRp1240
sg66
g10
(g11
S'Vb\x9e\x95\xef\xd6\xe7@'
tRp1241
sba(idata_structure
C_TSi
p1242
(dp1243
g9
g10
(g11
S'\xdb\xf9~j\xbct\x93?'
tRp1244
sg13
(dp1245
g15
F-99
sg16
F-99
sg17
F-99
sg18
F0.27700000000000002
sg19
F-99
sg20
I0
sg21
F-99
sg22
F-99
sg23
F-99
sg24
g10
(g11
S'R\x84,\xcfE\xf3\x0e@'
tRp1246
sg26
g10
(g11
S'x\xd30\xe6\x97\xf6\x8e?'
tRp1247
sg28
F-99
sg29
F0
sg30
F-99
sg31
g1
(g2
(I0
tS'b'
tRp1248
(I1
(I1
tg11
I00
S'if\x08\x19m\xe6x@'
tbsg33
g10
(g11
S'\x06K\xf8\x88X\xdd\xfa?'
tRp1249
sg35
g10
(g11
S'E\x14\xce\x08\xcd\xa0\xbc?'
tRp1250
sg37
F-99
sg38
I0
sg39
g1
(g2
(I0
tS'b'
tRp1251
(I1
(I1
tg11
I00
S'\xf1\xfb\x06\xee\xc8b\xfd?'
tbsg41
F-99
sg42
F-99
sg43
g10
(g11
S'\xb3\xd4\xb2\x94\x89e\x00@'
tRp1252
sg45
F-99
sg46
g10
(g11
S'?5^\xbaI\x8c\x1d\xc0'
tRp1253
sg48
g10
(g11
S'\xb8\x9b\x82C\x8c\xb1\xdd?'
tRp1254
sg50
F-99
sg51
F-99
ssg52
S'55'
p1255
sg54
F-69.0261
sg55
g10
(g11
S'?5^\xbaI\x8c\x1d\xc0'
tRp1256
sg57
(dp1257
g37
F-99
sg39
g1251
sg23
F-99
sg17
F-99
sg18
F0.27700000000000002
sg19
F-99
sg20
I0
sg21
F-99
sg22
F-99
sg16
F-99
sg24
g1246
sg26
g1247
sg29
F0
sg30
F-99
sg43
g1252
sg31
g1248
sg33
g1249
sg35
g1250
sg15
F-99
sg38
I0
sg50
F-99
sg41
F-99
sg42
F-99
sg28
F-99
sg45
F-99
sg46
g1253
sg48
g1254
sg51
F-99
ssg59
I5
sg60
S'1'
sg61
F5.1217800000000002
sg62
S'4415'
p1258
sg64
g10
(g11
S'\xf8\x89\x03hJ+\xe9@'
tRp1259
sg66
g10
(g11
S'\x1b\xa1\x9f\xa9\x0e\xd7\xe7@'
tRp1260
sba(idata_structure
C_TSi
p1261
(dp1262
g9
g10
(g11
S'\xfa~j\xbct\x93x?'
tRp1263
sg13
(dp1264
g15
F-99
sg16
F-99
sg17
F-99
sg18
F0.19400000000000001
sg19
F-99
sg20
I0
sg21
F-99
sg22
F-99
sg23
F-99
sg24
g10
(g11
S'\xdak"\xedS\xfaD@'
tRp1265
sg26
g10
(g11
S'\xdb<.i\xd2\x86\xa1?'
tRp1266
sg28
F-99
sg29
F0
sg30
F-99
sg31
g1
(g2
(I0
tS'b'
tRp1267
(I1
(I1
tg11
I00
S'z-e,\xbc\xaat@'
tbsg33
g10
(g11
S'\x87n\x89\x8d\xc0;\xe9?'
tRp1268
sg35
g10
(g11
S'\x10v\xa2z=Z\xd2?'
tRp1269
sg37
F-99
sg38
I0
sg39
g1
(g2
(I0
tS'b'
tRp1270
(I1
(I1
tg11
I00
S'\x1f\x9e\x14\xaf\xde\xd3\x10@'
tbsg41
F-99
sg42
F-99
sg43
g10
(g11
S'l\x88\x06\x96\xffm\xfd?'
tRp1271
sg45
F-99
sg46
g10
(g11
S'j\xbct\x93\x18\xa4 \xc0'
tRp1272
sg48
g10
(g11
S'\x12\xd4\xa5\xf0\xbb\x08\xde?'
tRp1273
sg50
F-99
sg51
F-99
ssg52
S'13'
p1274
sg54
F-68.889399999999995
sg55
g10
(g11
S'j\xbct\x93\x18\xa4 \xc0'
tRp1275
sg57
(dp1276
g37
F-99
sg39
g1270
sg23
F-99
sg17
F-99
sg18
F0.19400000000000001
sg19
F-99
sg20
I0
sg21
F-99
sg22
F-99
sg16
F-99
sg24
g1265
sg26
g1266
sg29
F0
sg30
F-99
sg43
g1271
sg31
g1267
sg33
g1268
sg35
g1269
sg15
F-99
sg38
I0
sg50
F-99
sg41
F-99
sg42
F-99
sg28
F-99
sg45
F-99
sg46
g1272
sg48
g1273
sg51
F-99
ssg59
I5
sg60
S'1'
sg61
F5.1239299999999997
sg62
S'4417'
p1277
sg64
g10
(g11
S'\xf8\x89\x03hJ+\xe9@'
tRp1278
sg66
g10
(g11
S'\x1b\xa1\x9f\xa9\x0e\xd7\xe7@'
tRp1279
sba(idata_structure
C_TSi
p1280
(dp1281
g9
g10
(g11
S'\n\xd7\xa3p=\n\xa7?'
tRp1282
sg13
(dp1283
g15
F-99
sg16
F-99
sg17
F-99
sg18
F1.1339999999999999
sg19
F-99
sg20
I0
sg21
F-99
sg22
F-99
sg23
F-99
sg24
g10
(g11
S'#p\xf5Wx\xfd\x04@'
tRp1284
sg26
g10
(g11
S'\x16\x14\x9b,\xd7\xb2\x9a?'
tRp1285
sg28
F-99
sg29
F0
sg30
F-99
sg31
g1
(g2
(I0
tS'b'
tRp1286
(I1
(I1
tg11
I00
S'7\x16N\xbf`\x9fc@'
tbsg33
g10
(g11
S'\xaf~\x11\xf6\x7f\xf1\xfd?'
tRp1287
sg35
g10
(g11
S'+Z\xde\x96\x90\x8c\xc3?'
tRp1288
sg37
F-99
sg38
I0
sg39
g1
(g2
(I0
tS'b'
tRp1289
(I1
(I1
tg11
I00
S'ew\xd6|\x14C\x00@'
tbsg41
F-99
sg42
F-99
sg43
g10
(g11
S'\xe3\x9d6<_K\xff?'
tRp1290
sg45
F-99
sg46
g10
(g11
S'\xc1\xca\xa1E\xb6s\x17\xc0'
tRp1291
sg48
g10
(g11
S'\x94\xa8\xdb|\x00)\xde?'
tRp1292
sg50
F-99
sg51
F-99
ssg52
S'168'
p1293
sg54
F-69.354699999999994
sg55
g10
(g11
S'\xc1\xca\xa1E\xb6s\x17\xc0'
tRp1294
sg57
(dp1295
g37
F-99
sg39
g1289
sg23
F-99
sg17
F-99
sg18
F1.1339999999999999
sg19
F-99
sg20
I0
sg21
F-99
sg22
F-99
sg16
F-99
sg24
g1284
sg26
g1285
sg29
F0
sg30
F-99
sg43
g1290
sg31
g1286
sg33
g1287
sg35
g1288
sg15
F-99
sg38
I0
sg50
F-99
sg41
F-99
sg42
F-99
sg28
F-99
sg45
F-99
sg46
g1291
sg48
g1292
sg51
F-99
ssg59
I5
sg60
S'1'
sg61
F5.14072
sg62
S'4531'
p1296
sg64
g10
(g11
S'\xf8\x89\x03hJ+\xe9@'
tRp1297
sg66
g10
(g11
S'\xee\xb2_\xf7\x0e\xd7\xe7@'
tRp1298
sba(idata_structure
C_TSi
p1299
(dp1300
g9
g10
(g11
S'\xd9\xce\xf7S\xe3\xa5\x9b?'
tRp1301
sg13
(dp1302
g15
F-99
sg16
F-99
sg17
F-99
sg18
F0.56100000000000005
sg19
F-99
sg20
I0
sg21
F-99
sg22
F-99
sg23
F-99
sg24
g10
(g11
S'\x05S\xc0\xd7\xb4\xac\x06@'
tRp1303
sg26
g10
(g11
S'\x83(L\xc6\x02\x0c\x8e?'
tRp1304
sg28
F-99
sg29
F0
sg30
F-99
sg31
g1
(g2
(I0
tS'b'
tRp1305
(I1
(I1
tg11
I00
S'\xc7!Ny\xac\x95w@'
tbsg33
g10
(g11
S'8\xb5]\xd7\xb5\x12\x03@'
tRp1306
sg35
g10
(g11
S'X\x1a\xbd#\xbf\x1c\xb8?'
tRp1307
sg37
F-99
sg38
I0
sg39
g1
(g2
(I0
tS'b'
tRp1308
(I1
(I1
tg11
I00
S'\xb6\xd0[\xfb\x14o\x00@'
tbsg41
F-99
sg42
F-99
sg43
g10
(g11
S'\xae\x1b\x95\x03\x07]\x00@'
tRp1309
sg45
F-99
sg46
g10
(g11
S'\xaeG\xe1z\x14\xae\x19\xc0'
tRp1310
sg48
g10
(g11
S'i\x02\tq^\x9c\xde?'
tRp1311
sg50
F-99
sg51
F-99
ssg52
S'99'
p1312
sg54
F-69.3553
sg55
g10
(g11
S'\xaeG\xe1z\x14\xae\x19\xc0'
tRp1313
sg57
(dp1314
g37
F-99
sg39
g1308
sg23
F-99
sg17
F-99
sg18
F0.56100000000000005
sg19
F-99
sg20
I0
sg21
F-99
sg22
F-99
sg16
F-99
sg24
g1303
sg26
g1304
sg29
F0
sg30
F-99
sg43
g1309
sg31
g1305
sg33
g1306
sg35
g1307
sg15
F-99
sg38
I0
sg50
F-99
sg41
F-99
sg42
F-99
sg28
F-99
sg45
F-99
sg46
g1310
sg48
g1311
sg51
F-99
ssg59
I5
sg60
S'1'
sg61
F5.1408399999999999
sg62
S'4531'
p1315
sg64
g10
(g11
S'\xf8\x89\x03hJ+\xe9@'
tRp1316
sg66
g10
(g11
S'\x1b\xa1\x9f\xa9\x0e\xd7\xe7@'
tRp1317
sba(idata_structure
C_TSi
p1318
(dp1319
g9
g10
(g11
S'y\xe9&1\x08\xac|?'
tRp1320
sg13
(dp1321
g15
F-99
sg16
F-99
sg17
F-99
sg18
F0.23100000000000001
sg19
F-99
sg20
I0
sg21
F-99
sg22
F-99
sg23
F-99
sg24
g10
(g11
S'`>\xef\t\x8b\x809@'
tRp1322
sg26
g10
(g11
S'\xcb\xc0\xac\x84 )\x9c?'
tRp1323
sg28
F-99
sg29
F0.0060034305317324182
sg30
F-99
sg31
g1
(g2
(I0
tS'b'
tRp1324
(I1
(I1
tg11
I00
S'\x02\x80\xa1\x83\xb3\xc6x@'
tbsg33
g10
(g11
S'v\x18\xdb\x81\xa2\xa5\xf2?'
tRp1325
sg35
g10
(g11
S'\xfa\xb5\xe4\xfc\xef\x8a\xcb?'
tRp1326
sg37
F-99
sg38
I0
sg39
g1
(g2
(I0
tS'b'
tRp1327
(I1
(I1
tg11
I00
S'\x12\xfci\x02\xff\xc7\x08@'
tbsg41
F-99
sg42
F-99
sg43
g10
(g11
S"\x9b\xd8Lt'T\x00@"
tRp1328
sg45
F-99
sg46
g10
(g11
S'\x87\x16\xd9\xce\xf7\x13\x1f\xc0'
tRp1329
sg48
g10
(g11
S'f"\xddC{8\xde?'
tRp1330
sg50
F-99
sg51
F-99
ssg52
S'66'
p1331
sg54
F-69.263599999999997
sg55
g10
(g11
S'\x87\x16\xd9\xce\xf7\x13\x1f\xc0'
tRp1332
sg57
(dp1333
g37
F-99
sg39
g1327
sg23
F-99
sg17
F-99
sg18
F0.23100000000000001
sg19
F-99
sg20
I0
sg21
F-99
sg22
F-99
sg16
F-99
sg24
g1322
sg26
g1323
sg29
F0.0060034305317324182
sg30
F-99
sg43
g1328
sg31
g1324
sg33
g1325
sg35
g1326
sg15
F-99
sg38
I0
sg50
F-99
sg41
F-99
sg42
F-99
sg28
F-99
sg45
F-99
sg46
g1329
sg48
g1330
sg51
F-99
ssg59
I5
sg60
S'1'
sg61
F5.1361299999999996
sg62
S'4532'
p1334
sg64
g10
(g11
S'\xf8\x89\x03hJ+\xe9@'
tRp1335
sg66
g10
(g11
S'Vb\x9e\x95\xef\xd6\xe7@'
tRp1336
sba(idata_structure
C_TSi
p1337
(dp1338
g9
g10
(g11
S'\xfc\xa9\xf1\xd2Mb\x80?'
tRp1339
sg13
(dp1340
g15
F-99
sg16
F-99
sg17
F-99
sg18
F0.313
sg19
F-99
sg20
I0
sg21
F-99
sg22
F-99
sg23
F-99
sg24
g10
(g11
S'\rm\x8c>\xab\x1b$@'
tRp1341
sg26
g10
(g11
S'h\x0e\x99\xad\xa1\x0e\x85?'
tRp1342
sg28
F-99
sg29
F0
sg30
F-99
sg31
g1
(g2
(I0
tS'b'
tRp1343
(I1
(I1
tg11
I00
S'\x19\xfe\xd8gl]v@'
tbsg33
g10
(g11
S'\xdc\xe7\x08\xc0\xe1\xa4\xed?'
tRp1344
sg35
g10
(g11
S'\xb6O\xe0\x8b/\xe6\xb5?'
tRp1345
sg37
F-99
sg38
I0
sg39
g1
(g2
(I0
tS'b'
tRp1346
(I1
(I1
tg11
I00
S'\xbbL\xcf\xd3\x89\xda\x10@'
tbsg41
F-99
sg42
F-99
sg43
g10
(g11
S'\xf5\xfa\xa9\x13\xc5:\xfe?'
tRp1347
sg45
F-99
sg46
g10
(g11
S'\xc7K7\x89A\xa0 \xc0'
tRp1348
sg48
g10
(g11
S'\xc9\x94\xe5\xff\x11[\xdc?'
tRp1349
sg50
F-99
sg51
F-99
ssg52
S'23'
p1350
sg54
F-69.140699999999995
sg55
g10
(g11
S'\xc7K7\x89A\xa0 \xc0'
tRp1351
sg57
(dp1352
g37
F-99
sg39
g1346
sg23
F-99
sg17
F-99
sg18
F0.313
sg19
F-99
sg20
I0
sg21
F-99
sg22
F-99
sg16
F-99
sg24
g1341
sg26
g1342
sg29
F0
sg30
F-99
sg43
g1347
sg31
g1343
sg33
g1344
sg35
g1345
sg15
F-99
sg38
I0
sg50
F-99
sg41
F-99
sg42
F-99
sg28
F-99
sg45
F-99
sg46
g1348
sg48
g1349
sg51
F-99
ssg59
I5
sg60
S'1'
sg61
F5.1453899999999999
sg62
S'4534'
p1353
sg64
g10
(g11
S'\xf8\x89\x03hJ+\xe9@'
tRp1354
sg66
g10
(g11
S'\x1b\xa1\x9f\xa9\x0e\xd7\xe7@'
tRp1355
sba(idata_structure
C_TSi
p1356
(dp1357
g9
g10
(g11
S'\xfa~j\xbct\x93x?'
tRp1358
sg13
(dp1359
g15
F-99
sg16
F-99
sg17
F-99
sg18
F0.21099999999999999
sg19
F-99
sg20
I0
sg21
F-99
sg22
F-99
sg23
F-99
sg24
g10
(g11
S'\xae(\x92j*\xebA@'
tRp1360
sg26
g10
(g11
S'\x99\xc35\xe8\xd0Z\xa0?'
tRp1361
sg28
F-99
sg29
F0.010676156583629894
sg30
F-99
sg31
g1
(g2
(I0
tS'b'
tRp1362
(I1
(I1
tg11
I00
S'\x01\xba\x92xLS~@'
tbsg33
g10
(g11
S'h\xf7Y\x96\x1b@\xef?'
tRp1363
sg35
g10
(g11
S'Q\xe5LD\x84\x01\xd0?'
tRp1364
sg37
F-99
sg38
I0
sg39
g1
(g2
(I0
tS'b'
tRp1365
(I1
(I1
tg11
I00
S'iw\x13guO\x06@'
tbsg41
F-99
sg42
F-99
sg43
g10
(g11
S'\xa5\xa6\xad\x82E\xb9\x00@'
tRp1366
sg45
F-99
sg46
g10
(g11
S'\x8f\xc2\xf5(\\\x0f\x1f\xc0'
tRp1367
sg48
g10
(g11
S'\xb6\xea\xd7\x84\xa3\xbe\xdd?'
tRp1368
sg50
F-99
sg51
F-99
ssg52
S'33'
p1369
sg54
F-69.128600000000006
sg55
g10
(g11
S'\x8f\xc2\xf5(\\\x0f\x1f\xc0'
tRp1370
sg57
(dp1371
g37
F-99
sg39
g1365
sg23
F-99
sg17
F-99
sg18
F0.21099999999999999
sg19
F-99
sg20
I0
sg21
F-99
sg22
F-99
sg16
F-99
sg24
g1360
sg26
g1361
sg29
F0.010676156583629894
sg30
F-99
sg43
g1366
sg31
g1362
sg33
g1363
sg35
g1364
sg15
F-99
sg38
I0
sg50
F-99
sg41
F-99
sg42
F-99
sg28
F-99
sg45
F-99
sg46
g1367
sg48
g1368
sg51
F-99
ssg59
I5
sg60
S'1'
sg61
F5.1417099999999998
sg62
S'4534'
p1372
sg64
g10
(g11
S'\xf8\x89\x03hJ+\xe9@'
tRp1373
sg66
g10
(g11
S'\x1b\xa1\x9f\xa9\x0e\xd7\xe7@'
tRp1374
sba(idata_structure
C_TSi
p1375
(dp1376
g9
g10
(g11
S'{\x14\xaeG\xe1zt?'
tRp1377
sg13
(dp1378
g15
F-99
sg16
F-99
sg17
F-99
sg18
F0.217
sg19
F-99
sg20
I0
sg21
F-99
sg22
F-99
sg23
F-99
sg24
g10
(g11
S'NAmD8\xaf8@'
tRp1379
sg26
g10
(g11
S';\x9e^\x14W\xaf\x93?'
tRp1380
sg28
F-99
sg29
F0
sg30
F-99
sg31
g1
(g2
(I0
tS'b'
tRp1381
(I1
(I1
tg11
I00
S'\xf4\xa19[\x90\x13\x81@'
tbsg33
g10
(g11
S'\xbb\xa8\xac\x92\xb8 \xf1?'
tRp1382
sg35
g10
(g11
S'\x83\x13\\\xd2h\xa4\xc3?'
tRp1383
sg37
F-99
sg38
I0
sg39
g1
(g2
(I0
tS'b'
tRp1384
(I1
(I1
tg11
I00
S'\xdc\xa3$;\xb3\x0c\x0b@'
tbsg41
F-99
sg42
F-99
sg43
g10
(g11
S'c=g"\xe7M\x00@'
tRp1385
sg45
F-99
sg46
g10
(g11
S'\x1dZd;\xdf\xcf\x1f\xc0'
tRp1386
sg48
g10
(g11
S'\xd3\xeb\xf60\xa4\x16\xde?'
tRp1387
sg50
F-99
sg51
F-99
ssg52
S'48'
p1388
sg54
F-69.1464
sg55
g10
(g11
S'\x1dZd;\xdf\xcf\x1f\xc0'
tRp1389
sg57
(dp1390
g37
F-99
sg39
g1384
sg23
F-99
sg17
F-99
sg18
F0.217
sg19
F-99
sg20
I0
sg21
F-99
sg22
F-99
sg16
F-99
sg24
g1379
sg26
g1380
sg29
F0
sg30
F-99
sg43
g1385
sg31
g1381
sg33
g1382
sg35
g1383
sg15
F-99
sg38
I0
sg50
F-99
sg41
F-99
sg42
F-99
sg28
F-99
sg45
F-99
sg46
g1386
sg48
g1387
sg51
F-99
ssg59
I5
sg60
S'1'
sg61
F5.1417999999999999
sg62
S'4534'
p1391
sg64
g10
(g11
S'\xf8\x89\x03hJ+\xe9@'
tRp1392
sg66
g10
(g11
S'\x1b\xa1\x9f\xa9\x0e\xd7\xe7@'
tRp1393
sba(idata_structure
C_TSi
p1394
(dp1395
g9
g10
(g11
S'\xfc\xa9\xf1\xd2Mb\x80?'
tRp1396
sg13
(dp1397
g15
F-99
sg16
F-99
sg17
F-99
sg18
F0.19700000000000001
sg19
F-99
sg20
I0
sg21
F-99
sg22
F-99
sg23
F-99
sg24
g10
(g11
S'0\x0c\x15[w\x95;@'
tRp1398
sg26
g10
(g11
S'\x95\x13}9cA\xa0?'
tRp1399
sg28
F-99
sg29
F0.0088652482269503553
sg30
F-99
sg31
g1
(g2
(I0
tS'b'
tRp1400
(I1
(I1
tg11
I00
S'%\xee\n\xa6\xa4\xceu@'
tbsg33
g10
(g11
S'\xbew\xad\xa0\xdcm\xf4?'
tRp1401
sg35
g10
(g11
S'\xcbEt\x05\xbd\xc1\xcf?'
tRp1402
sg37
F-99
sg38
I0
sg39
g1
(g2
(I0
tS'b'
tRp1403
(I1
(I1
tg11
I00
S'm\x1f\x1d\xc6,\xb0\x05@'
tbsg41
F-99
sg42
F-99
sg43
g10
(g11
S'\x9e\xd2\xd1\x89\x8b\x94\x00@'
tRp1404
sg45
F-99
sg46
g10
(g11
S'\xb0rh\x91\xed\xfc\x1e\xc0'
tRp1405
sg48
g10
(g11
S'\r"\xf6ua\xd6\xdd?'
tRp1406
sg50
F-99
sg51
F-99
ssg52
S'77'
p1407
sg54
F-68.816500000000005
sg55
g10
(g11
S'\xb0rh\x91\xed\xfc\x1e\xc0'
tRp1408
sg57
(dp1409
g37
F-99
sg39
g1403
sg23
F-99
sg17
F-99
sg18
F0.19700000000000001
sg19
F-99
sg20
I0
sg21
F-99
sg22
F-99
sg16
F-99
sg24
g1398
sg26
g1399
sg29
F0.0088652482269503553
sg30
F-99
sg43
g1404
sg31
g1400
sg33
g1401
sg35
g1402
sg15
F-99
sg38
I0
sg50
F-99
sg41
F-99
sg42
F-99
sg28
F-99
sg45
F-99
sg46
g1405
sg48
g1406
sg51
F-99
ssg59
I5
sg60
S'1'
sg61
F5.1431399999999998
sg62
S'4539'
p1410
sg64
g10
(g11
S'\xf8\x89\x03hJ+\xe9@'
tRp1411
sg66
g10
(g11
S'\x1b\xa1\x9f\xa9\x0e\xd7\xe7@'
tRp1412
sba(idata_structure
C_TSi
p1413
(dp1414
g9
g10
(g11
S'{\x14\xaeG\xe1zt?'
tRp1415
sg13
(dp1416
g15
F-99
sg16
F-99
sg17
F-99
sg18
F0.070999999999999994
sg19
F-99
sg20
I0
sg21
F-99
sg22
F-99
sg23
F-99
sg24
g10
(g11
S'1k\x9b\xe6\xce\x0c5@'
tRp1417
sg26
g10
(g11
S'\xbb\xf6\xdc!\xbc\x04\x92?'
tRp1418
sg28
F-99
sg29
F0
sg30
F-99
sg31
g1
(g2
(I0
tS'b'
tRp1419
(I1
(I1
tg11
I00
S'\xa8h\x15d\xa3\xee\x81@'
tbsg33
g10
(g11
S' \xb5Me\xb1\xbe\xf4?'
tRp1420
sg35
g10
(g11
S'\x0e\x95\xd2\x8db\xf9\xc1?'
tRp1421
sg37
F-99
sg38
I0
sg39
g1
(g2
(I0
tS'b'
tRp1422
(I1
(I1
tg11
I00
S'@\xe9Y*\x03C\xf8?'
tbsg41
F-99
sg42
F-99
sg43
g10
(g11
S'\x88Q\xde,\x8d;\x02@'
tRp1423
sg45
F-99
sg46
g10
(g11
S'\x87\x16\xd9\xce\xf7\xd3\x1f\xc0'
tRp1424
sg48
g10
(g11
S'\xbf\x05\x81?\xd1,\xde?'
tRp1425
sg50
F-99
sg51
F-99
ssg52
S'42'
p1426
sg54
F-69.299199999999999
sg55
g10
(g11
S'\x87\x16\xd9\xce\xf7\xd3\x1f\xc0'
tRp1427
sg57
(dp1428
g37
F-99
sg39
g1422
sg23
F-99
sg17
F-99
sg18
F0.070999999999999994
sg19
F-99
sg20
I0
sg21
F-99
sg22
F-99
sg16
F-99
sg24
g1417
sg26
g1418
sg29
F0
sg30
F-99
sg43
g1423
sg31
g1419
sg33
g1420
sg35
g1421
sg15
F-99
sg38
I0
sg50
F-99
sg41
F-99
sg42
F-99
sg28
F-99
sg45
F-99
sg46
g1424
sg48
g1425
sg51
F-99
ssg59
I5
sg60
S'1'
sg61
F5.15503
sg62
S'4652'
p1429
sg64
g10
(g11
S'\xf8\x89\x03hJ+\xe9@'
tRp1430
sg66
g10
(g11
S'\x1b\xa1\x9f\xa9\x0e\xd7\xe7@'
tRp1431
sba(idata_structure
C_TSi
p1432
(dp1433
g9
g10
(g11
S'\xfa~j\xbct\x93x?'
tRp1434
sg13
(dp1435
g15
F-99
sg16
F-99
sg17
F-99
sg18
F0.25900000000000001
sg19
F-99
sg20
I0
sg21
F-99
sg22
F-99
sg23
F-99
sg24
g10
(g11
S'x\xd7\xf5\xd1e\xc0?@'
tRp1436
sg26
g10
(g11
S'\xa6\xa7\x0f\xdb\x85q\x9b?'
tRp1437
sg28
F-99
sg29
F0.00089047195013357077
sg30
F-99
sg31
g1
(g2
(I0
tS'b'
tRp1438
(I1
(I1
tg11
I00
S'\xff\xa8/{\x80\x99}@'
tbsg33
g10
(g11
S'(\xbe\xcf\xa6\x86\xbe\xf3?'
tRp1439
sg35
g10
(g11
S'\\^\x14`hf\xcb?'
tRp1440
sg37
F-99
sg38
I0
sg39
g1
(g2
(I0
tS'b'
tRp1441
(I1
(I1
tg11
I00
S'N\xbd\xaa\x00a\xb0\x0c@'
tbsg41
F-99
sg42
F-99
sg43
g10
(g11
S'\x05)^\xc4#\x18\x00@'
tRp1442
sg45
F-99
sg46
g10
(g11
S'b\x10X9\xb4\xc8\x1f\xc0'
tRp1443
sg48
g10
(g11
S'\xda\x98^\xa9\xe46\xdd?'
tRp1444
sg50
F-99
sg51
F-99
ssg52
S'29'
p1445
sg54
F-69.242900000000006
sg55
g10
(g11
S'b\x10X9\xb4\xc8\x1f\xc0'
tRp1446
sg57
(dp1447
g37
F-99
sg39
g1441
sg23
F-99
sg17
F-99
sg18
F0.25900000000000001
sg19
F-99
sg20
I0
sg21
F-99
sg22
F-99
sg16
F-99
sg24
g1436
sg26
g1437
sg29
F0.00089047195013357077
sg30
F-99
sg43
g1442
sg31
g1438
sg33
g1439
sg35
g1440
sg15
F-99
sg38
I0
sg50
F-99
sg41
F-99
sg42
F-99
sg28
F-99
sg45
F-99
sg46
g1443
sg48
g1444
sg51
F-99
ssg59
I5
sg60
S'1'
sg61
F5.1484899999999998
sg62
S'4653'
p1448
sg64
g10
(g11
S'\xf8\x89\x03hJ+\xe9@'
tRp1449
sg66
g10
(g11
S'\x1b\xa1\x9f\xa9\x0e\xd7\xe7@'
tRp1450
sba(idata_structure
C_TSi
p1451
(dp1452
g9
g10
(g11
S'\xfa~j\xbct\x93\x88?'
tRp1453
sg13
(dp1454
g15
F-99
sg16
F-99
sg17
F-99
sg18
F0.214
sg19
F-99
sg20
I0
sg21
F-99
sg22
F-99
sg23
F-99
sg24
g10
(g11
S'^R\xce\xf2\x93\x16%@'
tRp1455
sg26
g10
(g11
S'k4\x12\xd8r\x89\x94?'
tRp1456
sg28
F-99
sg29
F0.00091324200913242006
sg30
F-99
sg31
g1
(g2
(I0
tS'b'
tRp1457
(I1
(I1
tg11
I00
S'9\x87\xc9\x19\x9a\xb9\x80@'
tbsg33
g10
(g11
S'\xa5\x11\x9e\xdd\xf1\xf6\xf6?'
tRp1458
sg35
g10
(g11
S'\xf0\nT\xc5\\)\xc4?'
tRp1459
sg37
F-99
sg38
I0
sg39
g1
(g2
(I0
tS'b'
tRp1460
(I1
(I1
tg11
I00
S'6\xeb"\x07iM\x08@'
tbsg41
F-99
sg42
F-99
sg43
g10
(g11
S'\x12\xcaF\x80\x1dt\x00@'
tRp1461
sg45
F-99
sg46
g10
(g11
S'\x1dZd;\xdfO\x1f\xc0'
tRp1462
sg48
g10
(g11
S'\xbf\xc8F^$[\xdd?'
tRp1463
sg50
F-99
sg51
F-99
ssg52
S'46'
p1464
sg54
F-69.150599999999997
sg55
g10
(g11
S'\x1dZd;\xdfO\x1f\xc0'
tRp1465
sg57
(dp1466
g37
F-99
sg39
g1460
sg23
F-99
sg17
F-99
sg18
F0.214
sg19
F-99
sg20
I0
sg21
F-99
sg22
F-99
sg16
F-99
sg24
g1455
sg26
g1456
sg29
F0.00091324200913242006
sg30
F-99
sg43
g1461
sg31
g1457
sg33
g1458
sg35
g1459
sg15
F-99
sg38
I0
sg50
F-99
sg41
F-99
sg42
F-99
sg28
F-99
sg45
F-99
sg46
g1462
sg48
g1463
sg51
F-99
ssg59
I5
sg60
S'1'
sg61
F5.1541600000000001
sg62
S'4655'
p1467
sg64
g10
(g11
S'\xf8\x89\x03hJ+\xe9@'
tRp1468
sg66
g10
(g11
S'\x1b\xa1\x9f\xa9\x0e\xd7\xe7@'
tRp1469
sba(idata_structure
C_TSi
p1470
(dp1471
g9
g10
(g11
S'\xfa~j\xbct\x93x?'
tRp1472
sg13
(dp1473
g15
F-99
sg16
F-99
sg17
F-99
sg18
F0.23899999999999999
sg19
F-99
sg20
I0
sg21
F-99
sg22
F-99
sg23
F-99
sg24
g10
(g11
S'\xac\xc9\xb1\x91G@&@'
tRp1474
sg26
g10
(g11
S'\xfa\x15\xd3\xbe\xc8d\x85?'
tRp1475
sg28
F-99
sg29
F0
sg30
F-99
sg31
g1
(g2
(I0
tS'b'
tRp1476
(I1
(I1
tg11
I00
S'\xbd\xbb\xc5*~\x0e~@'
tbsg33
g10
(g11
S'\xc1\xcd\x0c\x10\xca\x94\xff?'
tRp1477
sg35
g10
(g11
S'\xa4\x01l\x8c#\x90\xb5?'
tRp1478
sg37
F-99
sg38
I0
sg39
g1
(g2
(I0
tS'b'
tRp1479
(I1
(I1
tg11
I00
S'\xc6G3\xbf1\xac\xff?'
tbsg41
F-99
sg42
F-99
sg43
g10
(g11
S'F\xd4\x14#U\xd8\x00@'
tRp1480
sg45
F-99
sg46
g10
(g11
S'\x91\xed|?5\x1e \xc0'
tRp1481
sg48
g10
(g11
S'\x13\xf1\xa3\xa9\x98\xd2\xdd?'
tRp1482
sg50
F-99
sg51
F-99
ssg52
S'37'
p1483
sg54
F-68.971599999999995
sg55
g10
(g11
S'\x91\xed|?5\x1e \xc0'
tRp1484
sg57
(dp1485
g37
F-99
sg39
g1479
sg23
F-99
sg17
F-99
sg18
F0.23899999999999999
sg19
F-99
sg20
I0
sg21
F-99
sg22
F-99
sg16
F-99
sg24
g1474
sg26
g1475
sg29
F0
sg30
F-99
sg43
g1480
sg31
g1476
sg33
g1477
sg35
g1478
sg15
F-99
sg38
I0
sg50
F-99
sg41
F-99
sg42
F-99
sg28
F-99
sg45
F-99
sg46
g1481
sg48
g1482
sg51
F-99
ssg59
I5
sg60
S'1'
sg61
F5.1495899999999999
sg62
S'4657'
p1486
sg64
g10
(g11
S'\xf8\x89\x03hJ+\xe9@'
tRp1487
sg66
g10
(g11
S'\x1b\xa1\x9f\xa9\x0e\xd7\xe7@'
tRp1488
sba(idata_structure
C_TSi
p1489
(dp1490
g9
g10
(g11
S'\xfc\xa9\xf1\xd2Mbp?'
tRp1491
sg13
(dp1492
g15
F-99
sg16
F-99
sg17
F-99
sg18
F0.19400000000000001
sg19
F-99
sg20
I0
sg21
F-99
sg22
F-99
sg23
F-99
sg24
g10
(g11
S'jfR\x01\xdf\x8eQ@'
tRp1493
sg26
g10
(g11
S'\xde\xf6\xb4\xf3\x8c\x14\xa2?'
tRp1494
sg28
F-99
sg29
F0
sg30
F-99
sg31
g1
(g2
(I0
tS'b'
tRp1495
(I1
(I1
tg11
I00
S'U\x17\x01\x1ba8\x80@'
tbsg33
g10
(g11
S'\x0e\x87\x8fg\xa8\xbb\xf6?'
tRp1496
sg35
g10
(g11
S'\xfc\xbd\xd1\xed\xbf\x90\xd3?'
tRp1497
sg37
F-99
sg38
I0
sg39
g1
(g2
(I0
tS'b'
tRp1498
(I1
(I1
tg11
I00
S'\x10\x08x\xb7\xd2y\x11@'
tbsg41
F-99
sg42
F-99
sg43
g10
(g11
S'\xb0\xdc\x80\xef\xf0\x0e\xfd?'
tRp1499
sg45
F-99
sg46
g10
(g11
S'\xaeG\xe1z\x14.!\xc0'
tRp1500
sg48
g10
(g11
S'\xbb/\xd6\x9ad3\xdf?'
tRp1501
sg50
F-99
sg51
F-99
ssg52
S'63'
p1502
sg54
F-68.849599999999995
sg55
g10
(g11
S'\xaeG\xe1z\x14.!\xc0'
tRp1503
sg57
(dp1504
g37
F-99
sg39
g1498
sg23
F-99
sg17
F-99
sg18
F0.19400000000000001
sg19
F-99
sg20
I0
sg21
F-99
sg22
F-99
sg16
F-99
sg24
g1493
sg26
g1494
sg29
F0
sg30
F-99
sg43
g1499
sg31
g1495
sg33
g1496
sg35
g1497
sg15
F-99
sg38
I0
sg50
F-99
sg41
F-99
sg42
F-99
sg28
F-99
sg45
F-99
sg46
g1500
sg48
g1501
sg51
F-99
ssg59
I5
sg60
S'1'
sg61
F5.1493799999999998
sg62
S'4659'
p1505
sg64
g10
(g11
S'\xf8\x89\x03hJ+\xe9@'
tRp1506
sg66
g10
(g11
S'\x1b\xa1\x9f\xa9\x0e\xd7\xe7@'
tRp1507
sba(idata_structure
C_TSi
p1508
(dp1509
g9
g10
(g11
S'\xfc\xa9\xf1\xd2Mb`?'
tRp1510
sg13
(dp1511
g15
F-99
sg16
F-99
sg17
F-99
sg18
F0.24299999999999999
sg19
F-99
sg20
I0
sg21
F-99
sg22
F-99
sg23
F-99
sg24
g10
(g11
S'\xcc\xac\x12\xcb\x9c\x17Y@'
tRp1512
sg26
g10
(g11
S'\xcc\xbd\xcb\x89L&\xa0?'
tRp1513
sg28
F-99
sg29
F0.0018115942028985507
sg30
F-99
sg31
g1
(g2
(I0
tS'b'
tRp1514
(I1
(I1
tg11
I00
S'\xfa\x94\x82\x0e\x17(r@'
tbsg33
g10
(g11
S'i\x16n-,q\xf6?'
tRp1515
sg35
g10
(g11
S'\xc4\xe4\xc8\x89p\x98\xd3?'
tRp1516
sg37
F-99
sg38
I1
sg39
g1
(g2
(I0
tS'b'
tRp1517
(I1
(I1
tg11
I00
S"@\xde;U\x92\xc5'@"
tbsg41
F-99
sg42
F-99
sg43
g10
(g11
S'\x9dD\xc5\x17k\x0e\xf2?'
tRp1518
sg45
F-99
sg46
g10
(g11
S'\xb0rh\x91\xed\\#\xc0'
tRp1519
sg48
g10
(g11
S' \xdd\xeew\xaf\x82\xdf?'
tRp1520
sg50
F-99
sg51
F-99
ssg52
S'17'
p1521
sg54
F-68.740700000000004
sg55
g10
(g11
S'\xb0rh\x91\xed\\#\xc0'
tRp1522
sg57
(dp1523
g37
F-99
sg39
g1517
sg23
F-99
sg17
F-99
sg18
F0.24299999999999999
sg19
F-99
sg20
I0
sg21
F-99
sg22
F-99
sg16
F-99
sg24
g1512
sg26
g1513
sg29
F0.0018115942028985507
sg30
F-99
sg43
g1518
sg31
g1514
sg33
g1515
sg35
g1516
sg15
F-99
sg38
I1
sg50
F-99
sg41
F-99
sg42
F-99
sg28
F-99
sg45
F-99
sg46
g1519
sg48
g1520
sg51
F-99
ssg59
I5
sg60
S'1'
sg61
F5.1545300000000003
sg62
S'4661'
p1524
sg64
g10
(g11
S'\xf8\x89\x03hJ+\xe9@'
tRp1525
sg66
g10
(g11
S'\x1b\xa1\x9f\xa9\x0e\xd7\xe7@'
tRp1526
sbatb.